################################################################################
#                                                                              #
#      IAR Universal Linker V6.2.2.68                                          #
#                                                                              #
#           Link time     =  13/Apr/2016  22:20:33                             #
#           Target CPU    =  x51                                               #
#           List file     =  C:\Users\dtung\Downloads\SimpliciTI-IAR-1.2.0\Pro #
#                            jects\Examples\SRF04\AP_as_Data_Hub\IAR\CC1110-En #
#                            d_Device\List\AP_as_Data_Hub.map                  #
#           Output file 1 =  C:\Users\dtung\Downloads\SimpliciTI-IAR-1.2.0\Pro #
#                            jects\Examples\SRF04\AP_as_Data_Hub\IAR\CC1110-En #
#                            d_Device\Exe\AP_as_Data_Hub.hex                   #
#                            Format: ubrof10                                   #
#                            UBROF version 10.0.6                              #
#                            Using library modules for C-SPY (-rt)             #
#           Command line  =  "-IC:\Program Files\IAR Systems\Embedded Workbenc #
#                            h 7.2\8051\CONFIG\"                               #
#                            -D_NR_OF_BANKS=0 -D_CODEBANK_END=0                #
#                            -D_CODEBANK_START=0                               #
#                            C:\Users\dtung\Downloads\SimpliciTI-IAR-1.2.0\Pro #
#                            jects\Examples\SRF04\AP_as_Data_Hub\IAR\CC1110-En #
#                            d_Device\Obj\bsp.r51                              #
#                            C:\Users\dtung\Downloads\SimpliciTI-IAR-1.2.0\Pro #
#                            jects\Examples\SRF04\AP_as_Data_Hub\IAR\CC1110-En #
#                            d_Device\Obj\debugging.r51                        #
#                            C:\Users\dtung\Downloads\SimpliciTI-IAR-1.2.0\Pro #
#                            jects\Examples\SRF04\AP_as_Data_Hub\IAR\CC1110-En #
#                            d_Device\Obj\main_manyEDs_autoack.r51             #
#                            C:\Users\dtung\Downloads\SimpliciTI-IAR-1.2.0\Pro #
#                            jects\Examples\SRF04\AP_as_Data_Hub\IAR\CC1110-En #
#                            d_Device\Obj\mrfi.r51                             #
#                            C:\Users\dtung\Downloads\SimpliciTI-IAR-1.2.0\Pro #
#                            jects\Examples\SRF04\AP_as_Data_Hub\IAR\CC1110-En #
#                            d_Device\Obj\nwk.r51                              #
#                            C:\Users\dtung\Downloads\SimpliciTI-IAR-1.2.0\Pro #
#                            jects\Examples\SRF04\AP_as_Data_Hub\IAR\CC1110-En #
#                            d_Device\Obj\nwk_api.r51                          #
#                            C:\Users\dtung\Downloads\SimpliciTI-IAR-1.2.0\Pro #
#                            jects\Examples\SRF04\AP_as_Data_Hub\IAR\CC1110-En #
#                            d_Device\Obj\nwk_frame.r51                        #
#                            C:\Users\dtung\Downloads\SimpliciTI-IAR-1.2.0\Pro #
#                            jects\Examples\SRF04\AP_as_Data_Hub\IAR\CC1110-En #
#                            d_Device\Obj\nwk_freq.r51                         #
#                            C:\Users\dtung\Downloads\SimpliciTI-IAR-1.2.0\Pro #
#                            jects\Examples\SRF04\AP_as_Data_Hub\IAR\CC1110-En #
#                            d_Device\Obj\nwk_globals.r51                      #
#                            C:\Users\dtung\Downloads\SimpliciTI-IAR-1.2.0\Pro #
#                            jects\Examples\SRF04\AP_as_Data_Hub\IAR\CC1110-En #
#                            d_Device\Obj\nwk_ioctl.r51                        #
#                            C:\Users\dtung\Downloads\SimpliciTI-IAR-1.2.0\Pro #
#                            jects\Examples\SRF04\AP_as_Data_Hub\IAR\CC1110-En #
#                            d_Device\Obj\nwk_join.r51                         #
#                            C:\Users\dtung\Downloads\SimpliciTI-IAR-1.2.0\Pro #
#                            jects\Examples\SRF04\AP_as_Data_Hub\IAR\CC1110-En #
#                            d_Device\Obj\nwk_link.r51                         #
#                            C:\Users\dtung\Downloads\SimpliciTI-IAR-1.2.0\Pro #
#                            jects\Examples\SRF04\AP_as_Data_Hub\IAR\CC1110-En #
#                            d_Device\Obj\nwk_mgmt.r51                         #
#                            C:\Users\dtung\Downloads\SimpliciTI-IAR-1.2.0\Pro #
#                            jects\Examples\SRF04\AP_as_Data_Hub\IAR\CC1110-En #
#                            d_Device\Obj\nwk_ping.r51                         #
#                            C:\Users\dtung\Downloads\SimpliciTI-IAR-1.2.0\Pro #
#                            jects\Examples\SRF04\AP_as_Data_Hub\IAR\CC1110-En #
#                            d_Device\Obj\nwk_pll.r51                          #
#                            C:\Users\dtung\Downloads\SimpliciTI-IAR-1.2.0\Pro #
#                            jects\Examples\SRF04\AP_as_Data_Hub\IAR\CC1110-En #
#                            d_Device\Obj\nwk_QMgmt.r51                        #
#                            C:\Users\dtung\Downloads\SimpliciTI-IAR-1.2.0\Pro #
#                            jects\Examples\SRF04\AP_as_Data_Hub\IAR\CC1110-En #
#                            d_Device\Obj\nwk_security.r51                     #
#                            -o                                                #
#                            C:\Users\dtung\Downloads\SimpliciTI-IAR-1.2.0\Pro #
#                            jects\Examples\SRF04\AP_as_Data_Hub\IAR\CC1110-En #
#                            d_Device\Exe\AP_as_Data_Hub.hex                   #
#                            -l                                                #
#                            C:\Users\dtung\Downloads\SimpliciTI-IAR-1.2.0\Pro #
#                            jects\Examples\SRF04\AP_as_Data_Hub\IAR\CC1110-En #
#                            d_Device\List\AP_as_Data_Hub.map                  #
#                            -xms                                              #
#                            "-IC:\Program Files\IAR Systems\Embedded Workbenc #
#                            h 7.2\8051\LIB\"                                  #
#                            -f                                                #
#                            "C:\Program Files\IAR Systems\Embedded Workbench  #
#                            7.2\8051\config\devices\Texas Instruments\lnk51ew #
#                            _CC1110F32.xcl"                                   #
#                            (-D_IDATA0_START=0x00 -D_IDATA0_END=0xFF          #
#                            -D_PDATA0_START=0xF000 -D_PDATA0_END=0xF0FF       #
#                            -D_IXDATA0_START=0x00F000                         #
#                            -D_IXDATA0_END=0x00FDA1                           #
#                            -D_XDATA0_START=0x00F000 -D_XDATA0_END=0x00FDA1   #
#                            -D_CODE0_START=0x000000 -D_CODE0_END=0x007FFF     #
#                            -D?REGISTER_BANK=0x0 -D_REGISTER_BANK_START=0x0   #
#                            -D_BREG_START=0x00 -D?VB=0x20                     #
#                            -Z(BIT)BREG=_BREG_START -Z(BIT)BIT_N=0-7F         #
#                            -Z(DATA)REGISTERS+8=_REGISTER_BANK_START          #
#                            -Z(DATA)BDATA_Z,BDATA_N,BDATA_I=20-2F             #
#                            -Z(DATA)VREG=08-7F -Z(DATA)PSP,XSP=08-7F          #
#                            -Z(DATA)DOVERLAY=08-7F                            #
#                            -Z(DATA)DATA_I,DATA_Z,DATA_N=08-7F                #
#                            -U(IDATA)0-7F=(DATA)0-7F                          #
#                            -Z(IDATA)IDATA_I,IDATA_Z,IDATA_N=08-_IDATA0_END   #
#                            -Z(IDATA)ISTACK+_IDATA_STACK_SIZE#08-_IDATA0_END  #
#                            -Z(IDATA)IOVERLAY=08-FF -Z(CODE)INTVEC=0          #
#                            -Z(CODE)CSTART=_CODE0_START-_CODE0_END            #
#                            -Z(CODE)BIT_ID,BDATA_ID,DATA_ID,IDATA_ID,IXDATA_I #
#                            D,PDATA_ID,XDATA_ID=_CODE0_START-_CODE0_END       #
#                            -Z(CODE)RCODE,DIFUNCT,CODE_C,CODE_N,NEAR_CODE=_CO #
#                            DE0_START-_CODE0_END                              #
#                            -Z(CODE)CHECKSUM#_CODE0_END                       #
#                            -Z(XDATA)PDATA_Z,PDATA_I=_PDATA0_START-_PDATA0_EN #
#                            D                                                 #
#                            -P(XDATA)PDATA_N=_PDATA0_START-_PDATA0_END        #
#                            -Z(XDATA)PSTACK+_PDATA_STACK_SIZE=_PDATA0_START-_ #
#                            PDATA0_END                                        #
#                            -Z(XDATA)EXT_STACK+_EXTENDED_STACK_SIZE=_EXTENDED #
#                            _STACK_START                                      #
#                            -Z(XDATA)XSTACK+_XDATA_STACK_SIZE=_XDATA0_START-_ #
#                            XDATA0_END                                        #
#                            -Z(XDATA)IXDATA_Z,IXDATA_I=_IXDATA0_START-_IXDATA #
#                            0_END                                             #
#                            -P(XDATA)IXDATA_N=_IXDATA0_START-_IXDATA0_END     #
#                            -Z(XDATA)XDATA_Z,XDATA_I=_XDATA0_START-_XDATA0_EN #
#                            D                                                 #
#                            -P(XDATA)XDATA_N=_XDATA0_START-_XDATA0_END        #
#                            -Z(XDATA)XDATA_HEAP+_XDATA_HEAP_SIZE=_XDATA0_STAR #
#                            T-_XDATA0_END                                     #
#                            -Z(CONST)XDATA_ROM_C=_XDATA0_START-_XDATA0_END    #
#                            -cx51 -Z(XDATA)XDATA_SCRATCH=0xFDA2-0xFEFF)       #
#                            -D_NR_OF_VIRTUAL_REGISTERS=8 -D?PBANK=0x93        #
#                            -e_large_write=_formatted_write                   #
#                            -e_large_read=_formatted_read -rt -s              #
#                            __program_start                                   #
#                            "C:\Program Files\IAR Systems\Embedded Workbench  #
#                            7.2\8051\LIB\CLIB\cl-pli-nlxd-1e16x01.r51"        #
#                            -D_IDATA_STACK_SIZE=0xC0 -D?ESP=0 -D?ESP_MASK=0   #
#                            -D_EXTENDED_STACK_START=0                         #
#                            -D_EXTENDED_STACK_SIZE=0                          #
#                            -D_PDATA_STACK_SIZE=0x80                          #
#                            -D_XDATA_STACK_SIZE=0x3FF                         #
#                            -D_XDATA_HEAP_SIZE=0xFF -D_FAR_HEAP_SIZE=0xFFF    #
#                            -D_HUGE_HEAP_SIZE=0xFFF                           #
#                            -D_FAR22_HEAP_SIZE=0xFFF                          #
#                                                                              #
#                           Copyright (C) 1987-2015 IAR Systems AB.            #
################################################################################





                ****************************************
                *                                      *
                *           CROSS REFERENCE            *
                *                                      *
                ****************************************

       Program entry at : CODE      000000C7  Relocatable, from module : CSTARTUP




                ****************************************
                *                                      *
                *            RUNTIME MODEL             *
                *                                      *
                ****************************************

  __SystemLibrary          = CLib
  __calling_convention     = xdata_reentrant
  __code_model             = near
  __core                   = plain
  __data_model             = large
  __dptr_size              = 16
  __extended_stack         = disabled
  __location_for_constants = data
  __number_of_dptrs        = 1
  __rt_version             = 1

                ****************************************
                *                                      *
                *    AUTOMATIC SYMBOL REDIRECTIONS     *
                *                                      *
                ****************************************

                  There are no automatic symbol redirections.



                ****************************************
                *                                      *
                *              MODULE MAP              *
                *                                      *
                ****************************************


  DEFINED ABSOLUTE ENTRIES
    *************************************************************************

  DEFINED ABSOLUTE ENTRIES
  PROGRAM MODULE, NAME : ?ABS_ENTRY_MOD

Absolute parts
           ENTRY                   ADDRESS         REF BY
           =====                   =======         ======
           _FAR22_HEAP_SIZE        00000FFF 
           _HUGE_HEAP_SIZE         00000FFF 
           _FAR_HEAP_SIZE          00000FFF 
           _XDATA_HEAP_SIZE        000000FF 
           _XDATA_STACK_SIZE       000003FF 
           _PDATA_STACK_SIZE       00000080 
           _EXTENDED_STACK_SIZE    00000000 
           _EXTENDED_STACK_START   00000000 
           ?ESP_MASK               00000000 
           ?ESP                    00000000 
           _IDATA_STACK_SIZE       000000C0 
           ?PBANK                  00000093 
           _NR_OF_VIRTUAL_REGISTERS
                                   00000008 
           ?VB                     00000020        ?FUNC_ENTER_XDATA (?FUNC_ENTER_XDATA)
                                                   ?FUNC_LEAVE_XDATA (?FUNC_LEAVE_XDATA)
                                                   ?INTERRUPT_ENTER_XSP (?INTERRUPT_ENTER_XSP)
                                                   ?INTERRUPT_LEAVE_XSP (?INTERRUPT_LEAVE_XSP)
                                                   Mrfi_DelayUsecLong (mrfi)
           _BREG_START             00000000 
           _REGISTER_BANK_START    00000000 
           ?REGISTER_BANK          00000000        Segment part 6 (CSTARTUP)
           _CODE0_END              00007FFF 
           _CODE0_START            00000000 
           _XDATA0_END             0000FDA1 
           _XDATA0_START           0000F000 
           _IXDATA0_END            0000FDA1 
           _IXDATA0_START          0000F000 
           _PDATA0_END             0000F0FF 
           _PDATA0_START           0000F000 
           _IDATA0_END             000000FF 
           _IDATA0_START           00000000 
           _CODEBANK_START         00000000 
           _CODEBANK_END           00000000 
           _NR_OF_BANKS            00000000 
    *************************************************************************

  FILE NAME : C:\Users\dtung\Downloads\SimpliciTI-IAR-1.2.0\Projects\Examples\SRF04\AP_as_Data_Hub\IAR\CC1110-End_Device\Obj\bsp.r51
  PROGRAM MODULE, NAME : bsp

  SEGMENTS IN THE MODULE
  ======================
SFR_AN
  Relative segment, address: DATA 00000080 - 00000080 (0x1 bytes), align: 0
  Segment part 1. ROOT        Intra module refs:   BSP_InitLeds
                                                   t3_isr (main_manyEDs_autoack)
           ENTRY                   ADDRESS         REF BY
           =====                   =======         ======
           _A_P0                   00000080 
           LOCAL                   ADDRESS         
           =====                   =======         
           P0                      00000080 
    -------------------------------------------------------------------------
SFR_AN
  Relative segment, address: DATA 0000008F - 0000008F (0x1 bytes), align: 0
  Segment part 2. ROOT        Intra module refs:   BSP_InitButtons
                                                   main (main_manyEDs_autoack)
           ENTRY                   ADDRESS         REF BY
           =====                   =======         ======
           P0INP                   0000008F 
    -------------------------------------------------------------------------
SFR_AN
  Relative segment, address: DATA 00000090 - 00000090 (0x1 bytes), align: 0
  Segment part 3. ROOT        Intra module refs:   BSP_InitLeds
                                                   t3_isr (main_manyEDs_autoack)
           ENTRY                   ADDRESS         REF BY
           =====                   =======         ======
           _A_P1                   00000090 
           LOCAL                   ADDRESS         
           =====                   =======         
           P1                      00000090 
    -------------------------------------------------------------------------
SFR_AN
  Relative segment, address: DATA 000000A0 - 000000A0 (0x1 bytes), align: 0
  Segment part 4. ROOT        Intra module refs:   BSP_InitLeds
                                                   linkTo (main_manyEDs_autoack)
                                                   main (main_manyEDs_autoack)
           ENTRY                   ADDRESS         REF BY
           =====                   =======         ======
           _A_P2                   000000A0 
           LOCAL                   ADDRESS         
           =====                   =======         
           P2                      000000A0 
    -------------------------------------------------------------------------
SFR_AN
  Relative segment, address: DATA 000000A8 - 000000A8 (0x1 bytes), align: 0
  Segment part 5. ROOT        Intra module refs:   BSP_Init
                                                   MRFI_EnableRxAddrFilter (mrfi)
                                                   MRFI_Init (mrfi)
                                                   MRFI_ReplyDelay (mrfi)
                                                   MRFI_RfIsr (mrfi)
                                                   MRFI_Rssi (mrfi)
                                                   MRFI_RxIdle (mrfi)
                                                   MRFI_RxOn (mrfi)
                                                   MRFI_SetLogicalChannel (mrfi)
                                                   MRFI_SetRFPwr (mrfi)
                                                   MRFI_Sleep (mrfi)
                                                   MRFI_Transmit (mrfi)
                                                   MRFI_WakeUp (mrfi)
                                                   Mrfi_DelayUsec (mrfi)
                                                   Mrfi_DelayUsecLong (mrfi)
                                                   SleepTimerConfig (debugging)
                                                   Timer3Config (debugging)
                                                   nwk_QadjustOrder (nwk_QMgmt)
                                                   nwk_QfindOldest (nwk_QMgmt)
           ENTRY                   ADDRESS         REF BY
           =====                   =======         ======
           _A_IEN0                 000000A8 
           LOCAL                   ADDRESS         
           =====                   =======         
           IEN0                    000000A8 
    -------------------------------------------------------------------------
SFR_AN
  Relative segment, address: DATA 000000CB - 000000CB (0x1 bytes), align: 0
  Segment part 6. ROOT        Intra module refs:   BSP_Delay
                                                   Timer3Config (debugging)
           ENTRY                   ADDRESS         REF BY
           =====                   =======         ======
           T3CTL                   000000CB 
    -------------------------------------------------------------------------
SFR_AN
  Relative segment, address: DATA 000000CD - 000000CD (0x1 bytes), align: 0
  Segment part 7. ROOT        Intra module refs:   BSP_Delay
           ENTRY                   ADDRESS         REF BY
           =====                   =======         ======
           T3CC0                   000000CD 
    -------------------------------------------------------------------------
SFR_AN
  Relative segment, address: DATA 000000D8 - 000000D8 (0x1 bytes), align: 0
  Segment part 8. ROOT        Intra module refs:   BSP_Delay
                                                   t3_isr (main_manyEDs_autoack)
           ENTRY                   ADDRESS         REF BY
           =====                   =======         ======
           _A_TIMIF                000000D8 
           LOCAL                   ADDRESS         
           =====                   =======         
           TIMIF                   000000D8 
    -------------------------------------------------------------------------
SFR_AN
  Relative segment, address: DATA 000000F3 - 000000F3 (0x1 bytes), align: 0
  Segment part 9. ROOT        Intra module refs:   BSP_InitLeds
           ENTRY                   ADDRESS         REF BY
           =====                   =======         ======
           P0SEL                   000000F3 
    -------------------------------------------------------------------------
SFR_AN
  Relative segment, address: DATA 000000F4 - 000000F4 (0x1 bytes), align: 0
  Segment part 10. ROOT       Intra module refs:   BSP_InitLeds
           ENTRY                   ADDRESS         REF BY
           =====                   =======         ======
           P1SEL                   000000F4 
    -------------------------------------------------------------------------
SFR_AN
  Relative segment, address: DATA 000000F5 - 000000F5 (0x1 bytes), align: 0
  Segment part 11. ROOT       Intra module refs:   BSP_InitLeds
           ENTRY                   ADDRESS         REF BY
           =====                   =======         ======
           P2SEL                   000000F5 
    -------------------------------------------------------------------------
SFR_AN
  Relative segment, address: DATA 000000FD - 000000FD (0x1 bytes), align: 0
  Segment part 12. ROOT       Intra module refs:   BSP_InitLeds
                                                   linkTo (main_manyEDs_autoack)
                                                   t3_isr (main_manyEDs_autoack)
           ENTRY                   ADDRESS         REF BY
           =====                   =======         ======
           P0DIR                   000000FD 
    -------------------------------------------------------------------------
SFR_AN
  Relative segment, address: DATA 000000FE - 000000FE (0x1 bytes), align: 0
  Segment part 13. ROOT       Intra module refs:   BSP_InitLeds
                                                   linkTo (main_manyEDs_autoack)
                                                   t3_isr (main_manyEDs_autoack)
           ENTRY                   ADDRESS         REF BY
           =====                   =======         ======
           P1DIR                   000000FE 
    -------------------------------------------------------------------------
SFR_AN
  Relative segment, address: DATA 000000FF - 000000FF (0x1 bytes), align: 0
  Segment part 14. ROOT       Intra module refs:   BSP_InitLeds
           ENTRY                   ADDRESS         REF BY
           =====                   =======         ======
           P2DIR                   000000FF 
    -------------------------------------------------------------------------
NEAR_CODE
  Relative segment, address: CODE 000004E4 - 00000515 (0x32 bytes), align: 0
  Segment part 20.
           ENTRY                   ADDRESS         REF BY
           =====                   =======         ======
           BSP_Init                000004E4        main (main_manyEDs_autoack)
               calls direct
               XSTACK = 00000000 ( 00000002 )
               ISTACK = 00000000 ( 00000002 )
    -------------------------------------------------------------------------
NEAR_CODE
  Relative segment, address: CODE 00000516 - 00000539 (0x24 bytes), align: 0
  Segment part 22.
           ENTRY                   ADDRESS         REF BY
           =====                   =======         ======
           BSP_Delay               00000516        MRFI_ReplyDelay (mrfi)
                                                   Mrfi_DelayUsec (mrfi)
                                                   Mrfi_DelayUsecLong (mrfi)
    -------------------------------------------------------------------------
NEAR_CODE
  Relative segment, address: CODE 0000053A - 0000056E (0x35 bytes), align: 0
  Segment part 24.            Intra module refs:   BSP_Init
           ENTRY                   ADDRESS         REF BY
           =====                   =======         ======
           BSP_InitLeds            0000053A 
               XSTACK = 00000002 ( 00000000 )
    -------------------------------------------------------------------------
NEAR_CODE
  Relative segment, address: CODE 0000056F - 00000572 (0x4 bytes), align: 0
  Segment part 25.            Intra module refs:   BSP_Init
           ENTRY                   ADDRESS         REF BY
           =====                   =======         ======
           BSP_InitButtons         0000056F 
               XSTACK = 00000002 ( 00000000 )

    *************************************************************************

  FILE NAME : C:\Users\dtung\Downloads\SimpliciTI-IAR-1.2.0\Projects\Examples\SRF04\AP_as_Data_Hub\IAR\CC1110-End_Device\Obj\debugging.r51
  PROGRAM MODULE, NAME : debugging

  SEGMENTS IN THE MODULE
  ======================
SFR_AN
  Relative segment, address: DATA 00000086 - 00000086 (0x1 bytes), align: 0
  Segment part 1. ROOT 
           ENTRY                   ADDRESS         REF BY
           =====                   =======         ======
           U0CSR                   00000086 
    -------------------------------------------------------------------------
SFR_AN
  Relative segment, address: DATA 00000088 - 00000088 (0x1 bytes), align: 0
  Segment part 2. ROOT 
           ENTRY                   ADDRESS         REF BY
           =====                   =======         ======
           _A_TCON                 00000088 
           LOCAL                   ADDRESS         
           =====                   =======         
           TCON                    00000088 
    -------------------------------------------------------------------------
SFR_AN
  Relative segment, address: DATA 000000A1 - 000000A1 (0x1 bytes), align: 0
  Segment part 3. ROOT        Intra module refs:   SleepTimerConfig
                                                   sleep_isr (main_manyEDs_autoack)
           ENTRY                   ADDRESS         REF BY
           =====                   =======         ======
           WORIRQ                  000000A1 
    -------------------------------------------------------------------------
SFR_AN
  Relative segment, address: DATA 000000A2 - 000000A2 (0x1 bytes), align: 0
  Segment part 4. ROOT        Intra module refs:   SleepTimerConfig
           ENTRY                   ADDRESS         REF BY
           =====                   =======         ======
           WORCTRL                 000000A2 
    -------------------------------------------------------------------------
SFR_AN
  Relative segment, address: DATA 000000A3 - 000000A3 (0x1 bytes), align: 0
  Segment part 5. ROOT        Intra module refs:   SleepTimerConfig
           ENTRY                   ADDRESS         REF BY
           =====                   =======         ======
           WOREVT0                 000000A3 
    -------------------------------------------------------------------------
SFR_AN
  Relative segment, address: DATA 000000A4 - 000000A4 (0x1 bytes), align: 0
  Segment part 6. ROOT        Intra module refs:   SleepTimerConfig
           ENTRY                   ADDRESS         REF BY
           =====                   =======         ======
           WOREVT1                 000000A4 
    -------------------------------------------------------------------------
SFR_AN
  Relative segment, address: DATA 000000A5 - 000000A5 (0x1 bytes), align: 0
  Segment part 7. ROOT        Intra module refs:   EnterPM2 (main_manyEDs_autoack)
                                                   SleepTimerConfig
           ENTRY                   ADDRESS         REF BY
           =====                   =======         ======
           WORTIME0                000000A5 
    -------------------------------------------------------------------------
SFR_AN
  Relative segment, address: DATA 000000B8 - 000000B8 (0x1 bytes), align: 0
  Segment part 9. ROOT        Intra module refs:   Timer3Config
                                                   linkTo (main_manyEDs_autoack)
           ENTRY                   ADDRESS         REF BY
           =====                   =======         ======
           _A_IEN1                 000000B8 
           LOCAL                   ADDRESS         
           =====                   =======         
           IEN1                    000000B8 
    -------------------------------------------------------------------------
SFR_AN
  Relative segment, address: DATA 000000BE - 000000BE (0x1 bytes), align: 0
  Segment part 10. ROOT       Intra module refs:   EnterPM2 (main_manyEDs_autoack)
                                                   mSysConfig
                                                   sleep_isr (main_manyEDs_autoack)
           ENTRY                   ADDRESS         REF BY
           =====                   =======         ======
           SLEEP                   000000BE 
    -------------------------------------------------------------------------
SFR_AN
  Relative segment, address: DATA 000000C0 - 000000C0 (0x1 bytes), align: 0
  Segment part 11. ROOT       Intra module refs:   SleepTimerConfig
                                                   sleep_isr (main_manyEDs_autoack)
                                                   t3_isr (main_manyEDs_autoack)
           ENTRY                   ADDRESS         REF BY
           =====                   =======         ======
           _A_IRCON                000000C0 
           LOCAL                   ADDRESS         
           =====                   =======         
           IRCON                   000000C0 
    -------------------------------------------------------------------------
SFR_AN
  Relative segment, address: DATA 000000C2 - 000000C2 (0x1 bytes), align: 0
  Segment part 12. ROOT 
           ENTRY                   ADDRESS         REF BY
           =====                   =======         ======
           U0BAUD                  000000C2 
    -------------------------------------------------------------------------
SFR_AN
  Relative segment, address: DATA 000000C4 - 000000C4 (0x1 bytes), align: 0
  Segment part 13. ROOT 
           ENTRY                   ADDRESS         REF BY
           =====                   =======         ======
           U0UCR                   000000C4 
    -------------------------------------------------------------------------
SFR_AN
  Relative segment, address: DATA 000000C5 - 000000C5 (0x1 bytes), align: 0
  Segment part 14. ROOT 
           ENTRY                   ADDRESS         REF BY
           =====                   =======         ======
           U0GCR                   000000C5 
    -------------------------------------------------------------------------
SFR_AN
  Relative segment, address: DATA 000000C6 - 000000C6 (0x1 bytes), align: 0
  Segment part 15. ROOT       Intra module refs:   EnterPM2 (main_manyEDs_autoack)
                                                   MRFI_WakeUp (mrfi)
                                                   mSysConfig
           ENTRY                   ADDRESS         REF BY
           =====                   =======         ======
           CLKCON                  000000C6 
    -------------------------------------------------------------------------
SFR_AN
  Relative segment, address: DATA 000000F1 - 000000F1 (0x1 bytes), align: 0
  Segment part 17. ROOT 
           ENTRY                   ADDRESS         REF BY
           =====                   =======         ======
           PERCFG                  000000F1 
    -------------------------------------------------------------------------
SFR_AN
  Relative segment, address: DATA 000000F8 - 000000F8 (0x1 bytes), align: 0
  Segment part 20. ROOT 
           ENTRY                   ADDRESS         REF BY
           =====                   =======         ======
           _A_U1CSR                000000F8 
           LOCAL                   ADDRESS         
           =====                   =======         
           U1CSR                   000000F8 
    -------------------------------------------------------------------------
SFR_AN
  Relative segment, address: DATA 000000F9 - 000000F9 (0x1 bytes), align: 0
  Segment part 21. ROOT 
           ENTRY                   ADDRESS         REF BY
           =====                   =======         ======
           U1DBUF                  000000F9 
    -------------------------------------------------------------------------
SFR_AN
  Relative segment, address: DATA 000000FA - 000000FA (0x1 bytes), align: 0
  Segment part 22. ROOT 
           ENTRY                   ADDRESS         REF BY
           =====                   =======         ======
           U1BAUD                  000000FA 
    -------------------------------------------------------------------------
SFR_AN
  Relative segment, address: DATA 000000FB - 000000FB (0x1 bytes), align: 0
  Segment part 23. ROOT 
           ENTRY                   ADDRESS         REF BY
           =====                   =======         ======
           U1UCR                   000000FB 
    -------------------------------------------------------------------------
SFR_AN
  Relative segment, address: DATA 000000FC - 000000FC (0x1 bytes), align: 0
  Segment part 24. ROOT 
           ENTRY                   ADDRESS         REF BY
           =====                   =======         ======
           U1GCR                   000000FC 
    -------------------------------------------------------------------------
NEAR_CODE
  Relative segment, address: CODE 00000573 - 0000058B (0x19 bytes), align: 0
  Segment part 40.
           ENTRY                   ADDRESS         REF BY
           =====                   =======         ======
           mSysConfig              00000573        linkTo (main_manyEDs_autoack)
                                                   main (main_manyEDs_autoack)
    -------------------------------------------------------------------------
NEAR_CODE
  Relative segment, address: CODE 0000058C - 00000593 (0x8 bytes), align: 0
  Segment part 41.
           ENTRY                   ADDRESS         REF BY
           =====                   =======         ======
           Timer3Config            0000058C        main (main_manyEDs_autoack)
    -------------------------------------------------------------------------
NEAR_CODE
  Relative segment, address: CODE 00000594 - 000005BF (0x2c bytes), align: 0
  Segment part 42.
           ENTRY                   ADDRESS         REF BY
           =====                   =======         ======
           SleepTimerConfig        00000594        main (main_manyEDs_autoack)
    -------------------------------------------------------------------------
XDATA_ID
  Relative segment, address: CODE 000000D6 - 000000D9 (0x4 bytes), align: 0
  Segment part 35.            Intra module refs:   __Constant_ffffffff
    -------------------------------------------------------------------------
XDATA_I
  Relative segment, address: XDATA 0000F535 - 0000F538 (0x4 bytes), align: 0
  Segment part 34.            Intra module refs:   Mrfi_DelayUsecLong (mrfi)
           ENTRY                   ADDRESS         REF BY
           =====                   =======         ======
           __Constant_ffffffff     0000F535 

    *************************************************************************

  FILE NAME : C:\Users\dtung\Downloads\SimpliciTI-IAR-1.2.0\Projects\Examples\SRF04\AP_as_Data_Hub\IAR\CC1110-End_Device\Obj\main_manyEDs_autoack.r51
  PROGRAM MODULE, NAME : main_manyEDs_autoack

  SEGMENTS IN THE MODULE
  ======================
SFR_AN
  Relative segment, address: DATA 000000C7 - 000000C7 (0x1 bytes), align: 0
  Segment part 11. ROOT       Intra module refs:   EnterPM2
           ENTRY                   ADDRESS         REF BY
           =====                   =======         ======
           MEMCTR                  000000C7 
    -------------------------------------------------------------------------
SFR_AN
  Relative segment, address: DATA 000000C9 - 000000C9 (0x1 bytes), align: 0
  Segment part 12. ROOT       Intra module refs:   linkTo
           ENTRY                   ADDRESS         REF BY
           =====                   =======         ======
           WDCTL                   000000C9 
    -------------------------------------------------------------------------
SFR_AN
  Relative segment, address: DATA 000000D4 - 000000D4 (0x1 bytes), align: 0
  Segment part 13. ROOT       Intra module refs:   EnterPM2
                                                   MRFI_Init (mrfi)
           ENTRY                   ADDRESS         REF BY
           =====                   =======         ======
           DMA0CFGL                000000D4 
    -------------------------------------------------------------------------
SFR_AN
  Relative segment, address: DATA 000000D5 - 000000D5 (0x1 bytes), align: 0
  Segment part 14. ROOT       Intra module refs:   EnterPM2
                                                   MRFI_Init (mrfi)
           ENTRY                   ADDRESS         REF BY
           =====                   =======         ======
           DMA0CFGH                000000D5 
    -------------------------------------------------------------------------
SFR_AN
  Relative segment, address: DATA 000000D6 - 000000D6 (0x1 bytes), align: 0
  Segment part 15. ROOT       Intra module refs:   EnterPM2
                                                   MRFI_PrepareToTx (mrfi)
                                                   MRFI_RfIsr (mrfi)
                                                   MRFI_Transmit (mrfi)
                                                   Mrfi_RxModeOff (mrfi)
                                                   Mrfi_RxModeOn (mrfi)
           ENTRY                   ADDRESS         REF BY
           =====                   =======         ======
           DMAARM                  000000D6 
    -------------------------------------------------------------------------
SFR_AN
  Relative segment, address: DATA 000000F6 - 000000F6 (0x1 bytes), align: 0
  Segment part 17. ROOT       Intra module refs:   main
           ENTRY                   ADDRESS         REF BY
           =====                   =======         ======
           P1INP                   000000F6 
    -------------------------------------------------------------------------
XDATA_Z
  Relative segment, address: XDATA 0000F3FF - 0000F3FF (0x1 bytes), align: 0
  Segment part 29.            Intra module refs:   t3_isr
           ENTRY                   ADDRESS         REF BY
           =====                   =======         ======
           delay                   0000F3FF 
    -------------------------------------------------------------------------
XDATA_Z
  Relative segment, address: XDATA 0000F400 - 0000F400 (0x1 bytes), align: 0
  Segment part 30.            Intra module refs:   t3_isr
           ENTRY                   ADDRESS         REF BY
           =====                   =======         ======
           cnt                     0000F400 
    -------------------------------------------------------------------------
XDATA_Z
  Relative segment, address: XDATA 0000F401 - 0000F401 (0x1 bytes), align: 0
  Segment part 31.            Intra module refs:   t3_isr
           ENTRY                   ADDRESS         REF BY
           =====                   =======         ======
           pwmLut_idx00            0000F401 
    -------------------------------------------------------------------------
XDATA_I
  Relative segment, address: XDATA 0000F539 - 0000F53B (0x3 bytes), align: 0
  Segment part 27.            Intra module refs:   linkTo
    -------------------------------------------------------------------------
XDATA_I
  Relative segment, address: XDATA 0000F53C - 0000F53C (0x1 bytes), align: 0
  Segment part 32.            Intra module refs:   t3_isr
           ENTRY                   ADDRESS         REF BY
           =====                   =======         ======
           pwmLut_idx01            0000F53C 
    -------------------------------------------------------------------------
XDATA_I
  Relative segment, address: XDATA 0000F53D - 0000F53D (0x1 bytes), align: 0
  Segment part 34.            Intra module refs:   t3_isr
           ENTRY                   ADDRESS         REF BY
           =====                   =======         ======
           pwmLut_idx02            0000F53D 
    -------------------------------------------------------------------------
XDATA_I
  Relative segment, address: XDATA 0000F53E - 0000F53E (0x1 bytes), align: 0
  Segment part 36.            Intra module refs:   t3_isr
           ENTRY                   ADDRESS         REF BY
           =====                   =======         ======
           pwmLut_idx03            0000F53E 
    -------------------------------------------------------------------------
XDATA_I
  Relative segment, address: XDATA 0000F53F - 0000F53F (0x1 bytes), align: 0
  Segment part 38.            Intra module refs:   t3_isr
           ENTRY                   ADDRESS         REF BY
           =====                   =======         ======
           pwmLut_idx04            0000F53F 
    -------------------------------------------------------------------------
XDATA_I
  Relative segment, address: XDATA 0000F540 - 0000F540 (0x1 bytes), align: 0
  Segment part 40.            Intra module refs:   t3_isr
           ENTRY                   ADDRESS         REF BY
           =====                   =======         ======
           pwmLut_idx05            0000F540 
    -------------------------------------------------------------------------
XDATA_I
  Relative segment, address: XDATA 0000F541 - 0000F541 (0x1 bytes), align: 0
  Segment part 42.            Intra module refs:   t3_isr
           ENTRY                   ADDRESS         REF BY
           =====                   =======         ======
           pwmLut_idx06            0000F541 
    -------------------------------------------------------------------------
XDATA_I
  Relative segment, address: XDATA 0000F542 - 0000F542 (0x1 bytes), align: 0
  Segment part 44.            Intra module refs:   t3_isr
           ENTRY                   ADDRESS         REF BY
           =====                   =======         ======
           pwmLut_idx07            0000F542 
    -------------------------------------------------------------------------
XDATA_I
  Relative segment, address: XDATA 0000F543 - 0000F543 (0x1 bytes), align: 0
  Segment part 46.            Intra module refs:   t3_isr
           ENTRY                   ADDRESS         REF BY
           =====                   =======         ======
           pwmLut_idx10            0000F543 
    -------------------------------------------------------------------------
XDATA_I
  Relative segment, address: XDATA 0000F544 - 0000F544 (0x1 bytes), align: 0
  Segment part 48.            Intra module refs:   t3_isr
           ENTRY                   ADDRESS         REF BY
           =====                   =======         ======
           pwmLut_idx11            0000F544 
    -------------------------------------------------------------------------
XDATA_I
  Relative segment, address: XDATA 0000F545 - 0000F545 (0x1 bytes), align: 0
  Segment part 50.            Intra module refs:   t3_isr
           ENTRY                   ADDRESS         REF BY
           =====                   =======         ======
           pwmLut_idx12            0000F545 
    -------------------------------------------------------------------------
XDATA_I
  Relative segment, address: XDATA 0000F546 - 0000F546 (0x1 bytes), align: 0
  Segment part 52.            Intra module refs:   t3_isr
           ENTRY                   ADDRESS         REF BY
           =====                   =======         ======
           pwmLut_idx13            0000F546 
    -------------------------------------------------------------------------
XDATA_I
  Relative segment, address: XDATA 0000F547 - 0000F547 (0x1 bytes), align: 0
  Segment part 54.            Intra module refs:   t3_isr
           ENTRY                   ADDRESS         REF BY
           =====                   =======         ======
           pwmLut_idx14            0000F547 
    -------------------------------------------------------------------------
XDATA_I
  Relative segment, address: XDATA 0000F548 - 0000F548 (0x1 bytes), align: 0
  Segment part 56.            Intra module refs:   t3_isr
           ENTRY                   ADDRESS         REF BY
           =====                   =======         ======
           pwmLut_idx15            0000F548 
    -------------------------------------------------------------------------
XDATA_I
  Relative segment, address: XDATA 0000F549 - 0000F549 (0x1 bytes), align: 0
  Segment part 58.            Intra module refs:   t3_isr
           ENTRY                   ADDRESS         REF BY
           =====                   =======         ======
           pwmLut_idx16            0000F549 
    -------------------------------------------------------------------------
XDATA_I
  Relative segment, address: XDATA 0000F54A - 0000F54A (0x1 bytes), align: 0
  Segment part 60.            Intra module refs:   t3_isr
           ENTRY                   ADDRESS         REF BY
           =====                   =======         ======
           pwmLut_idx17            0000F54A 
    -------------------------------------------------------------------------
XDATA_Z
  Relative segment, address: XDATA 0000F402 - 0000F402 (0x1 bytes), align: 0
  Segment part 62.            Intra module refs:   linkTo
           LOCAL                   ADDRESS         
           =====                   =======         
           sLinkID1                0000F402 
    -------------------------------------------------------------------------
XDATA_I
  Relative segment, address: XDATA 0000F54B - 0000F551 (0x7 bytes), align: 0
  Segment part 63.            Intra module refs:   EnterPM2
           LOCAL                   ADDRESS         
           =====                   =======         
           PM2_BUF                 0000F54B 
    -------------------------------------------------------------------------
XDATA_I
  Relative segment, address: XDATA 0000F552 - 0000F559 (0x8 bytes), align: 0
  Segment part 65.            Intra module refs:   EnterPM2
           LOCAL                   ADDRESS         
           =====                   =======         
           dmaDesc                 0000F552 
    -------------------------------------------------------------------------
XDATA_Z
  Relative segment, address: XDATA 0000F403 - 0000F406 (0x4 bytes), align: 0
  Segment part 67.            Intra module refs:   EnterPM2
           LOCAL                   ADDRESS         
           =====                   =======         
           activeModeCnt           0000F403 
    -------------------------------------------------------------------------
XDATA_I
  Relative segment, address: XDATA 0000F55A - 0000F58D (0x34 bytes), align: 0
  Segment part 68.            Intra module refs:   ?Subroutine2
           ENTRY                   ADDRESS         REF BY
           =====                   =======         ======
           pwmLut                  0000F55A 
    -------------------------------------------------------------------------
NEAR_CODE
  Relative segment, address: CODE 000005C0 - 000005FF (0x40 bytes), align: 0
  Segment part 75.
           ENTRY                   ADDRESS         REF BY
           =====                   =======         ======
           main                    000005C0        ?call_main (?cmain)
               calls direct
    -------------------------------------------------------------------------
NEAR_CODE
  Relative segment, address: CODE 00000600 - 000006F3 (0xf4 bytes), align: 0
  Segment part 76.            Intra module refs:   main
           LOCAL                   ADDRESS         
           =====                   =======         
           linkTo                  00000600 
               calls direct
               XSTACK = 00000000 ( 00000004 )
               ISTACK = 00000000 ( 00000002 )
    -------------------------------------------------------------------------
XDATA_Z
  Relative segment, address: XDATA 0000F407 - 0000F407 (0x1 bytes), align: 0
  Segment part 70.            Intra module refs:   linkTo
           LOCAL                   ADDRESS         
           =====                   =======         
           linkTo{4}{5}{7}::cnt    0000F407 
    -------------------------------------------------------------------------
XDATA_Z
  Relative segment, address: XDATA 0000F408 - 0000F408 (0x1 bytes), align: 0
  Segment part 71.            Intra module refs:   linkTo
           LOCAL                   ADDRESS         
           =====                   =======         
           linkTo{4}{5}{9}::retry
                                   0000F408 
    -------------------------------------------------------------------------
NEAR_CODE
  Relative segment, address: CODE 000006F4 - 000006FC (0x9 bytes), align: 0
  Segment part 77.            Intra module refs:   sleep_isr::??INTVEC 43
           ENTRY                   ADDRESS         REF BY
           =====                   =======         ======
           sleep_isr               000006F4 
               interrupt function
               ISTACK = 00000000 ( 00000002 )
    -------------------------------------------------------------------------
NEAR_CODE
  Relative segment, address: CODE 000006FD - 0000096F (0x273 bytes), align: 0
  Segment part 78.            Intra module refs:   t3_isr::??INTVEC 91
           ENTRY                   ADDRESS         REF BY
           =====                   =======         ======
           t3_isr                  000006FD 
               interrupt function
               ISTACK = 00000000 ( 00000007 )
    -------------------------------------------------------------------------
NEAR_CODE
  Relative segment, address: CODE 00000970 - 00000973 (0x4 bytes), align: 0
  Segment part 79.            Intra module refs:   linkTo
                                                   t3_isr
           LOCAL                   ADDRESS         
           =====                   =======         
           ?Subroutine3            00000970 
    -------------------------------------------------------------------------
NEAR_CODE
  Relative segment, address: CODE 00000974 - 0000097C (0x9 bytes), align: 0
  Segment part 80.            Intra module refs:   ?Subroutine0
                                                   ?Subroutine3
           LOCAL                   ADDRESS         
           =====                   =======         
           ?Subroutine4            00000974 
    -------------------------------------------------------------------------
NEAR_CODE
  Relative segment, address: CODE 0000097D - 0000098C (0x10 bytes), align: 0
  Segment part 81.            Intra module refs:   t3_isr
           LOCAL                   ADDRESS         
           =====                   =======         
           ?Subroutine2            0000097D 
    -------------------------------------------------------------------------
NEAR_CODE
  Relative segment, address: CODE 0000098D - 00000992 (0x6 bytes), align: 0
  Segment part 82.            Intra module refs:   t3_isr
           LOCAL                   ADDRESS         
           =====                   =======         
           ?Subroutine0            0000098D 
    -------------------------------------------------------------------------
NEAR_CODE
  Relative segment, address: CODE 00000993 - 00000A5B (0xc9 bytes), align: 0
  Segment part 83.            Intra module refs:   linkTo
                                                   main
           LOCAL                   ADDRESS         
           =====                   =======         
           EnterPM2                00000993 
               XSTACK = 00000004 ( 0000000B )
               ISTACK = 00000000 ( 00000001 )
    -------------------------------------------------------------------------
NEAR_CODE
  Relative segment, address: CODE 00000A5C - 00000A66 (0xb bytes), align: 0
  Segment part 84.            Intra module refs:   EnterPM2
           LOCAL                   ADDRESS         
           =====                   =======         
           ?Subroutine1            00000A5C 
    -------------------------------------------------------------------------
INTVEC
  Common segment, address: CODE 00000000 - 0000002D (0x2e bytes), align: 0
  Segment part 20. ROOT 
           ENTRY                   ADDRESS         REF BY
           =====                   =======         ======
           sleep_isr::??INTVEC 43
                                   0000002B 
    -------------------------------------------------------------------------
INTVEC
  Common segment, address: CODE 00000000 - 0000005D (0x5e bytes), align: 0
  Segment part 21. ROOT 
           ENTRY                   ADDRESS         REF BY
           =====                   =======         ======
           t3_isr::??INTVEC 91     0000005B 
    -------------------------------------------------------------------------
XDATA_ID
  Relative segment, address: CODE 000000DA - 000000DC (0x3 bytes), align: 0
  Segment part 28.            Intra module refs:   Segment part 27
    -------------------------------------------------------------------------
XDATA_ID
  Relative segment, address: CODE 000000DD - 000000DD (0x1 bytes), align: 0
  Segment part 33.            Intra module refs:   pwmLut_idx01
    -------------------------------------------------------------------------
XDATA_ID
  Relative segment, address: CODE 000000DE - 000000DE (0x1 bytes), align: 0
  Segment part 35.            Intra module refs:   pwmLut_idx02
    -------------------------------------------------------------------------
XDATA_ID
  Relative segment, address: CODE 000000DF - 000000DF (0x1 bytes), align: 0
  Segment part 37.            Intra module refs:   pwmLut_idx03
    -------------------------------------------------------------------------
XDATA_ID
  Relative segment, address: CODE 000000E0 - 000000E0 (0x1 bytes), align: 0
  Segment part 39.            Intra module refs:   pwmLut_idx04
    -------------------------------------------------------------------------
XDATA_ID
  Relative segment, address: CODE 000000E1 - 000000E1 (0x1 bytes), align: 0
  Segment part 41.            Intra module refs:   pwmLut_idx05
    -------------------------------------------------------------------------
XDATA_ID
  Relative segment, address: CODE 000000E2 - 000000E2 (0x1 bytes), align: 0
  Segment part 43.            Intra module refs:   pwmLut_idx06
    -------------------------------------------------------------------------
XDATA_ID
  Relative segment, address: CODE 000000E3 - 000000E3 (0x1 bytes), align: 0
  Segment part 45.            Intra module refs:   pwmLut_idx07
    -------------------------------------------------------------------------
XDATA_ID
  Relative segment, address: CODE 000000E4 - 000000E4 (0x1 bytes), align: 0
  Segment part 47.            Intra module refs:   pwmLut_idx10
    -------------------------------------------------------------------------
XDATA_ID
  Relative segment, address: CODE 000000E5 - 000000E5 (0x1 bytes), align: 0
  Segment part 49.            Intra module refs:   pwmLut_idx11
    -------------------------------------------------------------------------
XDATA_ID
  Relative segment, address: CODE 000000E6 - 000000E6 (0x1 bytes), align: 0
  Segment part 51.            Intra module refs:   pwmLut_idx12
    -------------------------------------------------------------------------
XDATA_ID
  Relative segment, address: CODE 000000E7 - 000000E7 (0x1 bytes), align: 0
  Segment part 53.            Intra module refs:   pwmLut_idx13
    -------------------------------------------------------------------------
XDATA_ID
  Relative segment, address: CODE 000000E8 - 000000E8 (0x1 bytes), align: 0
  Segment part 55.            Intra module refs:   pwmLut_idx14
    -------------------------------------------------------------------------
XDATA_ID
  Relative segment, address: CODE 000000E9 - 000000E9 (0x1 bytes), align: 0
  Segment part 57.            Intra module refs:   pwmLut_idx15
    -------------------------------------------------------------------------
XDATA_ID
  Relative segment, address: CODE 000000EA - 000000EA (0x1 bytes), align: 0
  Segment part 59.            Intra module refs:   pwmLut_idx16
    -------------------------------------------------------------------------
XDATA_ID
  Relative segment, address: CODE 000000EB - 000000EB (0x1 bytes), align: 0
  Segment part 61.            Intra module refs:   pwmLut_idx17
    -------------------------------------------------------------------------
XDATA_ID
  Relative segment, address: CODE 000000EC - 000000F2 (0x7 bytes), align: 0
  Segment part 64.            Intra module refs:   PM2_BUF
    -------------------------------------------------------------------------
XDATA_ID
  Relative segment, address: CODE 000000F3 - 000000FA (0x8 bytes), align: 0
  Segment part 66.            Intra module refs:   dmaDesc
    -------------------------------------------------------------------------
XDATA_ID
  Relative segment, address: CODE 000000FB - 0000012E (0x34 bytes), align: 0
  Segment part 69.            Intra module refs:   pwmLut

    *************************************************************************

  FILE NAME : C:\Users\dtung\Downloads\SimpliciTI-IAR-1.2.0\Projects\Examples\SRF04\AP_as_Data_Hub\IAR\CC1110-End_Device\Obj\mrfi.r51
  PROGRAM MODULE, NAME : mrfi

  SEGMENTS IN THE MODULE
  ======================
SFR_AN
  Relative segment, address: DATA 000000A9 - 000000A9 (0x1 bytes), align: 0
  Segment part 1. ROOT        Intra module refs:   MRFI_Init
           ENTRY                   ADDRESS         REF BY
           =====                   =======         ======
           _A_IP0xx                000000A9 
           LOCAL                   ADDRESS         
           =====                   =======         
           IP0xx                   000000A9 
    -------------------------------------------------------------------------
SFR_AN
  Relative segment, address: DATA 000000B9 - 000000B9 (0x1 bytes), align: 0
  Segment part 2. ROOT        Intra module refs:   MRFI_Init
           ENTRY                   ADDRESS         REF BY
           =====                   =======         ======
           _A_IP1xx                000000B9 
           LOCAL                   ADDRESS         
           =====                   =======         
           IP1xx                   000000B9 
    -------------------------------------------------------------------------
SFR_AN
  Relative segment, address: DATA 00000091 - 00000091 (0x1 bytes), align: 0
  Segment part 3. ROOT        Intra module refs:   Mrfi_RxModeOff
                                                   Mrfi_RxModeOn
           ENTRY                   ADDRESS         REF BY
           =====                   =======         ======
           RFIM                    00000091 
    -------------------------------------------------------------------------
SFR_AN
  Relative segment, address: DATA 0000009A - 0000009A (0x1 bytes), align: 0
  Segment part 4. ROOT        Intra module refs:   MRFI_Init
           ENTRY                   ADDRESS         REF BY
           =====                   =======         ======
           IEN2                    0000009A 
    -------------------------------------------------------------------------
SFR_AN
  Relative segment, address: DATA 0000009B - 0000009B (0x1 bytes), align: 0
  Segment part 5. ROOT        Intra module refs:   MRFI_RfIsr
                                                   Mrfi_RxModeOff
                                                   Mrfi_RxModeOn
           ENTRY                   ADDRESS         REF BY
           =====                   =======         ======
           S1CON                   0000009B 
    -------------------------------------------------------------------------
SFR_AN
  Relative segment, address: DATA 000000B4 - 000000B4 (0x1 bytes), align: 0
  Segment part 7. ROOT        Intra module refs:   MRFI_RandomByte
           ENTRY                   ADDRESS         REF BY
           =====                   =======         ======
           ADCCON1                 000000B4 
    -------------------------------------------------------------------------
SFR_AN
  Relative segment, address: DATA 000000BC - 000000BC (0x1 bytes), align: 0
  Segment part 8. ROOT        Intra module refs:   MRFI_Init
                                                   MRFI_RandomByte
           ENTRY                   ADDRESS         REF BY
           =====                   =======         ======
           RNDL                    000000BC 
    -------------------------------------------------------------------------
SFR_AN
  Relative segment, address: DATA 000000D1 - 000000D1 (0x1 bytes), align: 0
  Segment part 10. ROOT       Intra module refs:   MRFI_PrepareToTx
                                                   Mrfi_RxModeOff
           ENTRY                   ADDRESS         REF BY
           =====                   =======         ======
           DMAIRQ                  000000D1 
    -------------------------------------------------------------------------
SFR_AN
  Relative segment, address: DATA 000000E1 - 000000E1 (0x1 bytes), align: 0
  Segment part 14. ROOT       Intra module refs:   MRFI_Init
                                                   MRFI_PrepareToTx
                                                   MRFI_Transmit
                                                   MRFI_WakeUp
                                                   Mrfi_RxModeOff
                                                   Mrfi_RxModeOn
           ENTRY                   ADDRESS         REF BY
           =====                   =======         ======
           RFST                    000000E1 
    -------------------------------------------------------------------------
SFR_AN
  Relative segment, address: DATA 000000E9 - 000000E9 (0x1 bytes), align: 0
  Segment part 15. ROOT       Intra module refs:   MRFI_RfIsr
                                                   MRFI_Transmit
                                                   Mrfi_RxModeOff
                                                   Mrfi_RxModeOn
                                                   mrfi_TxDone
           ENTRY                   ADDRESS         REF BY
           =====                   =======         ======
           RFIF                    000000E9 
    -------------------------------------------------------------------------
XDATA_I
  Relative segment, address: XDATA 0000F58E - 0000F591 (0x4 bytes), align: 0
  Segment part 22.            Intra module refs:   MRFI_RxAddrIsFiltered
           ENTRY                   ADDRESS         REF BY
           =====                   =======         ======
           mrfiBroadcastAddr       0000F58E        nwk_getBCastAddress (nwk_globals)
    -------------------------------------------------------------------------
XDATA_Z
  Relative segment, address: XDATA 0000F409 - 0000F409 (0x1 bytes), align: 0
  Segment part 24.            Intra module refs:   MRFI_GetRadioState
                                                   MRFI_Init
                                                   MRFI_RfIsr
                                                   MRFI_Rssi
                                                   MRFI_RxIdle
                                                   MRFI_RxOn
                                                   MRFI_SetLogicalChannel
                                                   MRFI_SetRFPwr
                                                   MRFI_Sleep
                                                   MRFI_Transmit
                                                   MRFI_WakeUp
           LOCAL                   ADDRESS         
           =====                   =======         
           mrfiRadioState          0000F409 
    -------------------------------------------------------------------------
XDATA_Z
  Relative segment, address: XDATA 0000F40A - 0000F439 (0x30 bytes), align: 0
  Segment part 25.            Intra module refs:   MRFI_Init
                                                   MRFI_Receive
                                                   MRFI_RfIsr
                                                   Mrfi_RxModeOn
           LOCAL                   ADDRESS         
           =====                   =======         
           mrfiIncomingPacket      0000F40A 
    -------------------------------------------------------------------------
XDATA_Z
  Relative segment, address: XDATA 0000F43A - 0000F43A (0x1 bytes), align: 0
  Segment part 26.            Intra module refs:   MRFI_PostKillSem
                                                   MRFI_ReplyDelay
           LOCAL                   ADDRESS         
           =====                   =======         
           sKillSem                0000F43A 
    -------------------------------------------------------------------------
XDATA_Z
  Relative segment, address: XDATA 0000F43B - 0000F43B (0x1 bytes), align: 0
  Segment part 27.            Intra module refs:   MRFI_PostKillSem
                                                   MRFI_ReplyDelay
           LOCAL                   ADDRESS         
           =====                   =======         
           sReplyDelayContext      0000F43B 
    -------------------------------------------------------------------------
XDATA_Z
  Relative segment, address: XDATA 0000F43C - 0000F43D (0x2 bytes), align: 0
  Segment part 28.            Intra module refs:   MRFI_Init
                                                   MRFI_ReplyDelay
           LOCAL                   ADDRESS         
           =====                   =======         
           sReplyDelayScalar       0000F43C 
    -------------------------------------------------------------------------
XDATA_Z
  Relative segment, address: XDATA 0000F43E - 0000F43F (0x2 bytes), align: 0
  Segment part 29.            Intra module refs:   MRFI_Init
                                                   MRFI_Transmit
           LOCAL                   ADDRESS         
           =====                   =======         
           sBackoffHelper          0000F43E 
    -------------------------------------------------------------------------
XDATA_Z
  Relative segment, address: XDATA 0000F440 - 0000F447 (0x8 bytes), align: 0
  Segment part 30.            Intra module refs:   MRFI_Init
                                                   MRFI_PrepareToTx
                                                   Mrfi_RxModeOn
           ENTRY                   ADDRESS         REF BY
           =====                   =======         ======
           mrfiDmaCfg              0000F440 
    -------------------------------------------------------------------------
NEAR_CODE
  Relative segment, address: CODE 00000A67 - 00000BC5 (0x15f bytes), align: 0
  Segment part 43.
           ENTRY                   ADDRESS         REF BY
           =====                   =======         ======
           MRFI_Init               00000A67        SMPL_Init (nwk_api)
               calls direct
               XSTACK = 00000000 ( 0000000B )
    -------------------------------------------------------------------------
NEAR_CODE
  Relative segment, address: CODE 00000BC6 - 00000BCA (0x5 bytes), align: 0
  Segment part 44.            Intra module refs:   MRFI_Init
                                                   Mrfi_DelayUsec
                                                   Mrfi_RxModeOn
           LOCAL                   ADDRESS         
           =====                   =======         
           ?Subroutine0            00000BC6 
    -------------------------------------------------------------------------
NEAR_CODE
  Relative segment, address: CODE 00000BCB - 00000BFA (0x30 bytes), align: 0
  Segment part 45.            Intra module refs:   MRFI_Transmit
           LOCAL                   ADDRESS         
           =====                   =======         
           MRFI_PrepareToTx        00000BCB 
               XSTACK = 0000000B ( 00000000 )
               ISTACK = 00000000 ( 00000002 )
    -------------------------------------------------------------------------
NEAR_CODE
  Relative segment, address: CODE 00000BFB - 00000C1C (0x22 bytes), align: 0
  Segment part 46.            Intra module refs:   MRFI_Transmit
           LOCAL                   ADDRESS         
           =====                   =======         
           mrfi_TxDone             00000BFB 
               is indirectly called
               ISTACK = 00000000 ( 00000002 )
    -------------------------------------------------------------------------
NEAR_CODE
  Relative segment, address: CODE 00000C1D - 00000D05 (0xe9 bytes), align: 0
  Segment part 47.
           ENTRY                   ADDRESS         REF BY
           =====                   =======         ======
           MRFI_Transmit           00000C1D        nwk_sendAckReply (nwk_frame)
                                                   nwk_sendFrame (nwk_frame)
               calls direct
               XSTACK = 00000000 ( 0000000F )
    -------------------------------------------------------------------------
XDATA_Z
  Relative segment, address: XDATA 0000F448 - 0000F448 (0x1 bytes), align: 0
  Segment part 31.            Intra module refs:   MRFI_Transmit
           LOCAL                   ADDRESS         
           =====                   =======         
           MRFI_Transmit::ccaRetries
                                   0000F448 
    -------------------------------------------------------------------------
NEAR_CODE
  Relative segment, address: CODE 00000D06 - 00000D18 (0x13 bytes), align: 0
  Segment part 48.
           ENTRY                   ADDRESS         REF BY
           =====                   =======         ======
           MRFI_Receive            00000D06        MRFI_RxCompleteISR (nwk_frame)
               ISTACK = 00000000 ( 00000002 )
    -------------------------------------------------------------------------
NEAR_CODE
  Relative segment, address: CODE 00000D19 - 00000DF8 (0xe0 bytes), align: 0
  Segment part 49.            Intra module refs:   MRFI_RfIsr::??INTVEC 131
           ENTRY                   ADDRESS         REF BY
           =====                   =======         ======
           MRFI_RfIsr              00000D19 
               interrupt function
               calls direct
               XSTACK = 00000000 ( 00000011 )
    -------------------------------------------------------------------------
NEAR_CODE
  Relative segment, address: CODE 00000DF9 - 00000E1F (0x27 bytes), align: 0
  Segment part 50.
           ENTRY                   ADDRESS         REF BY
           =====                   =======         ======
           MRFI_Sleep              00000DF9        SMPL_Receive (nwk_api)
                                                   nwk_join (nwk_join)
                                                   nwk_link (nwk_link)
                                                   nwk_radioControl (nwk_ioctl)
               calls direct
               XSTACK = 00000000 ( 00000008 )
    -------------------------------------------------------------------------
NEAR_CODE
  Relative segment, address: CODE 00000E20 - 00000E4F (0x30 bytes), align: 0
  Segment part 51.
           ENTRY                   ADDRESS         REF BY
           =====                   =======         ======
           MRFI_WakeUp             00000E20        SMPL_Init (nwk_api)
                                                   SMPL_Receive (nwk_api)
                                                   nwk_join (nwk_join)
                                                   nwk_link (nwk_link)
                                                   nwk_radioControl (nwk_ioctl)
               ISTACK = 00000000 ( 00000002 )
    -------------------------------------------------------------------------
NEAR_CODE
  Relative segment, address: CODE 00000E50 - 00000E5A (0xb bytes), align: 0
  Segment part 52.            Intra module refs:   MRFI_Init
                                                   MRFI_WakeUp
           LOCAL                   ADDRESS         
           =====                   =======         
           ?Subroutine7            00000E50 
    -------------------------------------------------------------------------
NEAR_CODE
  Relative segment, address: CODE 00000E5B - 00000E61 (0x7 bytes), align: 0
  Segment part 53.            Intra module refs:   MRFI_Transmit
           ENTRY                   ADDRESS         REF BY
           =====                   =======         ======
           MRFI_RandomByte         00000E5B        nwk_frameInit (nwk_frame)
                                                   nwk_joinInit (nwk_join)
                                                   nwk_linkInit (nwk_link)
                                                   nwk_mgmtInit (nwk_mgmt)
                                                   nwk_pingInit (nwk_ping)
               XSTACK = 0000000B ( 00000000 )
    -------------------------------------------------------------------------
NEAR_CODE
  Relative segment, address: CODE 00000E62 - 00000EB1 (0x50 bytes), align: 0
  Segment part 54.            Intra module refs:   MRFI_RfIsr
                                                   MRFI_RxOn
                                                   MRFI_SetLogicalChannel
                                                   MRFI_SetRFPwr
                                                   MRFI_Transmit
           LOCAL                   ADDRESS         
           =====                   =======         
           Mrfi_RxModeOn           00000E62 
               calls direct
               XSTACK = 0000000F ( 0000000B )
    -------------------------------------------------------------------------
NEAR_CODE
  Relative segment, address: CODE 00000EB2 - 00000EBC (0xb bytes), align: 0
  Segment part 55.            Intra module refs:   MRFI_PrepareToTx
                                                   Mrfi_RxModeOn
           LOCAL                   ADDRESS         
           =====                   =======         
           ?Subroutine5            00000EB2 
    -------------------------------------------------------------------------
NEAR_CODE
  Relative segment, address: CODE 00000EBD - 00000ED9 (0x1d bytes), align: 0
  Segment part 56.
           ENTRY                   ADDRESS         REF BY
           =====                   =======         ======
           MRFI_RxOn               00000EBD        SMPL_Receive (nwk_api)
                                                   nwk_join (nwk_join)
                                                   nwk_link (nwk_link)
                                                   nwk_radioControl (nwk_ioctl)
               calls direct
               ISTACK = 00000000 ( 00000002 )
    -------------------------------------------------------------------------
NEAR_CODE
  Relative segment, address: CODE 00000EDA - 00000EDA (0x1 bytes), align: 0
  Segment part 57.            Intra module refs:   MRFI_EnableRxAddrFilter
                                                   MRFI_PrepareToTx
           LOCAL                   ADDRESS         
           =====                   =======         
           ?Subroutine1            00000EDA 
    -------------------------------------------------------------------------
NEAR_CODE
  Relative segment, address: CODE 00000EDB - 00000EDF (0x5 bytes), align: 0
  Segment part 58.            Intra module refs:   ?Subroutine1
                                                   MRFI_GetRadioState
                                                   MRFI_PostKillSem
                                                   MRFI_Receive
                                                   MRFI_RxIdle
                                                   MRFI_RxOn
                                                   MRFI_SetRxAddrFilter
                                                   MRFI_WakeUp
                                                   Mrfi_RxModeOff
                                                   mrfi_TxDone
    -------------------------------------------------------------------------
NEAR_CODE
  Relative segment, address: CODE 00000EE0 - 00000EFF (0x20 bytes), align: 0
  Segment part 59.            Intra module refs:   MRFI_Init
                                                   MRFI_RfIsr
                                                   MRFI_RxIdle
                                                   MRFI_SetLogicalChannel
                                                   MRFI_SetRFPwr
                                                   MRFI_Transmit
           LOCAL                   ADDRESS         
           =====                   =======         
           Mrfi_RxModeOff          00000EE0 
               XSTACK = 0000000F ( 00000000 )
               ISTACK = 00000000 ( 00000002 )
    -------------------------------------------------------------------------
NEAR_CODE
  Relative segment, address: CODE 00000F00 - 00000F1C (0x1d bytes), align: 0
  Segment part 60.            Intra module refs:   MRFI_Sleep
           ENTRY                   ADDRESS         REF BY
           =====                   =======         ======
           MRFI_RxIdle             00000F00        SMPL_Receive (nwk_api)
                                                   nwk_join (nwk_join)
                                                   nwk_link (nwk_link)
                                                   nwk_radioControl (nwk_ioctl)
               calls direct
               XSTACK = 00000008 ( 00000000 )
               ISTACK = 00000000 ( 00000002 )
    -------------------------------------------------------------------------
NEAR_CODE
  Relative segment, address: CODE 00000F1D - 00000F57 (0x3b bytes), align: 0
  Segment part 61.            Intra module refs:   MRFI_DelayMs
                                                   MRFI_Init
                                                   MRFI_Rssi
                                                   MRFI_Transmit
           LOCAL                   ADDRESS         
           =====                   =======         
           Mrfi_DelayUsec          00000F1D 
               calls direct
               XSTACK = 0000000B ( 00000009 )
    -------------------------------------------------------------------------
NEAR_CODE
  Relative segment, address: CODE 00000F58 - 00000F77 (0x20 bytes), align: 0
  Segment part 62.
           ENTRY                   ADDRESS         REF BY
           =====                   =======         ======
           MRFI_DelayMs            00000F58        linkTo (main_manyEDs_autoack)
                                                   main (main_manyEDs_autoack)
               calls direct
               XSTACK = 00000000 ( 00000008 )
    -------------------------------------------------------------------------
NEAR_CODE
  Relative segment, address: CODE 00000F78 - 00000FE0 (0x69 bytes), align: 0
  Segment part 63.
           ENTRY                   ADDRESS         REF BY
           =====                   =======         ======
           MRFI_ReplyDelay         00000F78        SMPL_Receive (nwk_api)
                                                   nwk_join (nwk_join)
                                                   nwk_link (nwk_link)
               calls direct
               XSTACK = 00000000 ( 0000000A )
    -------------------------------------------------------------------------
NEAR_CODE
  Relative segment, address: CODE 00000FE1 - 00000FEF (0xf bytes), align: 0
  Segment part 64.            Intra module refs:   MRFI_ReplyDelay
                                                   Mrfi_DelayUsec
                                                   Mrfi_DelayUsecLong
           LOCAL                   ADDRESS         
           =====                   =======         
           ?Subroutine6            00000FE1 
    -------------------------------------------------------------------------
NEAR_CODE
  Relative segment, address: CODE 00000FF0 - 00000FFE (0xf bytes), align: 0
  Segment part 65.            Intra module refs:   MRFI_ReplyDelay
           LOCAL                   ADDRESS         
           =====                   =======         
           ?Subroutine4            00000FF0 
    -------------------------------------------------------------------------
NEAR_CODE
  Relative segment, address: CODE 00000FFF - 000010C1 (0xc3 bytes), align: 0
  Segment part 66.            Intra module refs:   MRFI_Transmit
           ENTRY                   ADDRESS         REF BY
           =====                   =======         ======
           Mrfi_DelayUsecLong      00000FFF 
               calls direct
               XSTACK = 0000000F ( 0000000E )
    -------------------------------------------------------------------------
NEAR_CODE
  Relative segment, address: CODE 000010C2 - 000010D4 (0x13 bytes), align: 0
  Segment part 67.
           ENTRY                   ADDRESS         REF BY
           =====                   =======         ======
           MRFI_PostKillSem        000010C2        nwk_isConnectionValid (nwk)
                                                   nwk_processJoin (nwk_join)
                                                   nwk_processLink (nwk_link)
                                                   nwk_processMgmt (nwk_mgmt)
                                                   nwk_processPing (nwk_ping)
               ISTACK = 00000000 ( 00000002 )
    -------------------------------------------------------------------------
NEAR_CODE
  Relative segment, address: CODE 000010D5 - 00001108 (0x34 bytes), align: 0
  Segment part 68.
           ENTRY                   ADDRESS         REF BY
           =====                   =======         ======
           MRFI_Rssi               000010D5        nwk_radioControl (nwk_ioctl)
               calls direct
               XSTACK = 00000000 ( 00000008 )
    -------------------------------------------------------------------------
NEAR_CODE
  Relative segment, address: CODE 00001109 - 00001119 (0x11 bytes), align: 0
  Segment part 69.            Intra module refs:   MRFI_Rssi
                                                   MRFI_Transmit
           LOCAL                   ADDRESS         
           =====                   =======         
           ?Subroutine3            00001109 
    -------------------------------------------------------------------------
NEAR_CODE
  Relative segment, address: CODE 0000111A - 00001121 (0x8 bytes), align: 0
  Segment part 70.            Intra module refs:   ?Subroutine3
                                                   MRFI_Init
                                                   MRFI_RfIsr
           LOCAL                   ADDRESS         
           =====                   =======         
           ?Subroutine10           0000111A 
    -------------------------------------------------------------------------
NEAR_CODE
  Relative segment, address: CODE 00001122 - 00001156 (0x35 bytes), align: 0
  Segment part 71.            Intra module refs:   MRFI_RfIsr
                                                   MRFI_Rssi
           LOCAL                   ADDRESS         
           =====                   =======         
           Mrfi_CalculateRssi      00001122 
               XSTACK = 0000000F ( 00000000 )
               ISTACK = 00000000 ( 00000002 )
    -------------------------------------------------------------------------
NEAR_CODE
  Relative segment, address: CODE 00001157 - 00001162 (0xc bytes), align: 0
  Segment part 72.
           ENTRY                   ADDRESS         REF BY
           =====                   =======         ======
           MRFI_GetRadioState      00001157        SMPL_Receive (nwk_api)
                                                   nwk_join (nwk_join)
                                                   nwk_link (nwk_link)
               ISTACK = 00000000 ( 00000002 )
    -------------------------------------------------------------------------
XDATA_I
  Relative segment, address: XDATA 0000F592 - 0000F595 (0x4 bytes), align: 0
  Segment part 32.            Intra module refs:   MRFI_SetLogicalChannel
           LOCAL                   ADDRESS         
           =====                   =======         
           mrfiLogicalChanTable    0000F592 
    -------------------------------------------------------------------------
XDATA_I
  Relative segment, address: XDATA 0000F596 - 0000F598 (0x3 bytes), align: 0
  Segment part 34.            Intra module refs:   MRFI_SetRFPwr
           LOCAL                   ADDRESS         
           =====                   =======         
           mrfiRFPowerTable        0000F596 
    -------------------------------------------------------------------------
XDATA_Z
  Relative segment, address: XDATA 0000F449 - 0000F449 (0x1 bytes), align: 0
  Segment part 36.            Intra module refs:   MRFI_EnableRxAddrFilter
                                                   MRFI_RxAddrIsFiltered
           LOCAL                   ADDRESS         
           =====                   =======         
           mrfiRxFilterEnabled     0000F449 
    -------------------------------------------------------------------------
XDATA_I
  Relative segment, address: XDATA 0000F599 - 0000F59C (0x4 bytes), align: 0
  Segment part 37.            Intra module refs:   ?Subroutine9
                                                   MRFI_EnableRxAddrFilter
           LOCAL                   ADDRESS         
           =====                   =======         
           mrfiRxFilterAddr        0000F599 
    -------------------------------------------------------------------------
XDATA_I
  Relative segment, address: XDATA 0000F59D - 0000F5A0 (0x4 bytes), align: 0
  Segment part 39.            Intra module refs:   MRFI_Transmit
           ENTRY                   ADDRESS         REF BY
           =====                   =======         ======
           __Constant_6            0000F59D 
    -------------------------------------------------------------------------
NEAR_CODE
  Relative segment, address: CODE 00001163 - 0000118F (0x2d bytes), align: 0
  Segment part 73.            Intra module refs:   MRFI_Init
           ENTRY                   ADDRESS         REF BY
           =====                   =======         ======
           MRFI_SetLogicalChannel
                                   00001163 
               calls direct
               XSTACK = 00000009 ( 00000008 )
    -------------------------------------------------------------------------
NEAR_CODE
  Relative segment, address: CODE 00001190 - 00001194 (0x5 bytes), align: 0
  Segment part 74.            Intra module refs:   MRFI_DelayMs
                                                   MRFI_Rssi
                                                   MRFI_RxAddrIsFiltered
                                                   MRFI_SetLogicalChannel
                                                   MRFI_SetRFPwr
                                                   MRFI_Sleep
           LOCAL                   ADDRESS         
           =====                   =======         
           ?Subroutine2            00001190 
    -------------------------------------------------------------------------
NEAR_CODE
  Relative segment, address: CODE 00001195 - 000011C3 (0x2f bytes), align: 0
  Segment part 75.
           ENTRY                   ADDRESS         REF BY
           =====                   =======         ======
           MRFI_SetRFPwr           00001195        nwk_radioControl (nwk_ioctl)
               calls direct
               XSTACK = 00000000 ( 00000008 )
    -------------------------------------------------------------------------
NEAR_CODE
  Relative segment, address: CODE 000011C4 - 000011F4 (0x31 bytes), align: 0
  Segment part 76.
           ENTRY                   ADDRESS         REF BY
           =====                   =======         ======
           MRFI_SetRxAddrFilter    000011C4        SMPL_Init (nwk_api)
               ISTACK = 00000000 ( 00000003 )
    -------------------------------------------------------------------------
NEAR_CODE
  Relative segment, address: CODE 000011F5 - 00001211 (0x1d bytes), align: 0
  Segment part 77.
           ENTRY                   ADDRESS         REF BY
           =====                   =======         ======
           MRFI_EnableRxAddrFilter
                                   000011F5        SMPL_Init (nwk_api)
               ISTACK = 00000000 ( 00000002 )
    -------------------------------------------------------------------------
NEAR_CODE
  Relative segment, address: CODE 00001212 - 00001257 (0x46 bytes), align: 0
  Segment part 79.            Intra module refs:   MRFI_RfIsr
           ENTRY                   ADDRESS         REF BY
           =====                   =======         ======
           MRFI_RxAddrIsFiltered   00001212 
               XSTACK = 0000000F ( 00000008 )
    -------------------------------------------------------------------------
NEAR_CODE
  Relative segment, address: CODE 00001258 - 00001262 (0xb bytes), align: 0
  Segment part 80.            Intra module refs:   MRFI_RxAddrIsFiltered
                                                   MRFI_SetRxAddrFilter
           LOCAL                   ADDRESS         
           =====                   =======         
           ?Subroutine9            00001258 
    -------------------------------------------------------------------------
NEAR_CODE
  Relative segment, address: CODE 00001263 - 0000126E (0xc bytes), align: 0
  Segment part 81.            Intra module refs:   MRFI_RxAddrIsFiltered
                                                   MRFI_SetRxAddrFilter
           LOCAL                   ADDRESS         
           =====                   =======         
           ?Subroutine8            00001263 
    -------------------------------------------------------------------------
INTVEC
  Common segment, address: CODE 00000000 - 00000085 (0x86 bytes), align: 0
  Segment part 16. ROOT 
           ENTRY                   ADDRESS         REF BY
           =====                   =======         ======
           MRFI_RfIsr::??INTVEC 131
                                   00000083 
    -------------------------------------------------------------------------
XDATA_ID
  Relative segment, address: CODE 0000012F - 00000132 (0x4 bytes), align: 0
  Segment part 23.            Intra module refs:   mrfiBroadcastAddr
    -------------------------------------------------------------------------
XDATA_ID
  Relative segment, address: CODE 00000133 - 00000136 (0x4 bytes), align: 0
  Segment part 33.            Intra module refs:   mrfiLogicalChanTable
    -------------------------------------------------------------------------
XDATA_ID
  Relative segment, address: CODE 00000137 - 00000139 (0x3 bytes), align: 0
  Segment part 35.            Intra module refs:   mrfiRFPowerTable
    -------------------------------------------------------------------------
XDATA_ID
  Relative segment, address: CODE 0000013A - 0000013D (0x4 bytes), align: 0
  Segment part 38.            Intra module refs:   mrfiRxFilterAddr
    -------------------------------------------------------------------------
XDATA_ID
  Relative segment, address: CODE 0000013E - 00000141 (0x4 bytes), align: 0
  Segment part 40.            Intra module refs:   __Constant_6

    *************************************************************************

  FILE NAME : C:\Users\dtung\Downloads\SimpliciTI-IAR-1.2.0\Projects\Examples\SRF04\AP_as_Data_Hub\IAR\CC1110-End_Device\Obj\nwk.r51
  PROGRAM MODULE, NAME : nwk

  SEGMENTS IN THE MODULE
  ======================
XDATA_I
  Relative segment, address: XDATA 0000F5A1 - 0000F5C9 (0x29 bytes), align: 0
  Segment part 6.             Intra module refs:   ?Subroutine5
                                                   map_lid2idx
                                                   nwk_allocateLocalRxPort
                                                   nwk_findPeer
                                                   nwk_getNextConnection
                                                   nwk_isConnectionValid
                                                   nwk_isLinkDuplicate
                                                   nwk_nwkInit
           LOCAL                   ADDRESS         
           =====                   =======         
           sPersistInfo            0000F5A1 
    -------------------------------------------------------------------------
NEAR_CODE
  Relative segment, address: CODE 0000126F - 00001308 (0x9a bytes), align: 0
  Segment part 8.
           ENTRY                   ADDRESS         REF BY
           =====                   =======         ======
           nwk_nwkInit             0000126F        SMPL_Init (nwk_api)
               calls direct
               XSTACK = 00000000 ( 0000000B )
    -------------------------------------------------------------------------
NEAR_CODE
  Relative segment, address: CODE 00001309 - 00001380 (0x78 bytes), align: 0
  Segment part 9.
           ENTRY                   ADDRESS         REF BY
           =====                   =======         ======
           nwk_getNextConnection   00001309        nwk_link (nwk_link)
                                                   smpl_send_link_reply (nwk_link)
               calls direct
               XSTACK = 00000000 ( 00000009 )
               ISTACK = 00000000 ( 00000001 )
    -------------------------------------------------------------------------
NEAR_CODE
  Relative segment, address: CODE 00001381 - 00001385 (0x5 bytes), align: 0
  Segment part 10.            Intra module refs:   nwk_getConnInfo
                                                   nwk_getNextConnection
           LOCAL                   ADDRESS         
           =====                   =======         
           ?Subroutine0            00001381 
    -------------------------------------------------------------------------
NEAR_CODE
  Relative segment, address: CODE 00001386 - 0000138A (0x5 bytes), align: 0
  Segment part 11.            Intra module refs:   ?Subroutine0
                                                   map_lid2idx
    -------------------------------------------------------------------------
NEAR_CODE
  Relative segment, address: CODE 0000138B - 00001394 (0xa bytes), align: 0
  Segment part 12.
           ENTRY                   ADDRESS         REF BY
           =====                   =======         ======
           nwk_freeConnection      0000138B        handleLinkRequest (nwk_link)
                                                   nwk_connectionControl (nwk_ioctl)
                                                   nwk_link (nwk_link)
                                                   smpl_send_link_reply (nwk_link)
               ISTACK = 00000000 ( 00000002 )
    -------------------------------------------------------------------------
NEAR_CODE
  Relative segment, address: CODE 00001395 - 00001399 (0x5 bytes), align: 0
  Segment part 13.            Intra module refs:   nwk_checkConnInfo
                                                   nwk_freeConnection
           LOCAL                   ADDRESS         
           =====                   =======         
           ?Subroutine1            00001395 
    -------------------------------------------------------------------------
NEAR_CODE
  Relative segment, address: CODE 0000139A - 000013C5 (0x2c bytes), align: 0
  Segment part 14.
           ENTRY                   ADDRESS         REF BY
           =====                   =======         ======
           nwk_getConnInfo         0000139A        SMPL_Receive (nwk_api)
                                                   nwk_QfindOldest (nwk_QMgmt)
                                                   nwk_connectionControl (nwk_ioctl)
                                                   nwk_radioControl (nwk_ioctl)
                                                   nwk_retrieveFrame (nwk_frame)
               calls direct
               XSTACK = 00000000 ( 00000009 )
    -------------------------------------------------------------------------
NEAR_CODE
  Relative segment, address: CODE 000013C6 - 000013DA (0x15 bytes), align: 0
  Segment part 15.            Intra module refs:   nwk_getConnInfo
                                                   nwk_getNextConnection
           LOCAL                   ADDRESS         
           =====                   =======         
           ?Subroutine5            000013C6 
    -------------------------------------------------------------------------
NEAR_CODE
  Relative segment, address: CODE 000013DB - 00001440 (0x66 bytes), align: 0
  Segment part 16.
           ENTRY                   ADDRESS         REF BY
           =====                   =======         ======
           nwk_isLinkDuplicate     000013DB        smpl_send_link_reply (nwk_link)
               calls direct
               XSTACK = 00000000 ( 0000000F )
    -------------------------------------------------------------------------
NEAR_CODE
  Relative segment, address: CODE 00001441 - 00001445 (0x5 bytes), align: 0
  Segment part 17.            Intra module refs:   nwk_findPeer
                                                   nwk_isLinkDuplicate
           LOCAL                   ADDRESS         
           =====                   =======         
           ?Subroutine2            00001441 
    -------------------------------------------------------------------------
NEAR_CODE
  Relative segment, address: CODE 00001446 - 00001475 (0x30 bytes), align: 0
  Segment part 19.
           ENTRY                   ADDRESS         REF BY
           =====                   =======         ======
           nwk_checkConnInfo       00001446        SMPL_Receive (nwk_api)
               ISTACK = 00000000 ( 00000002 )
    -------------------------------------------------------------------------
NEAR_CODE
  Relative segment, address: CODE 00001476 - 00001568 (0xf3 bytes), align: 0
  Segment part 20.
           ENTRY                   ADDRESS         REF BY
           =====                   =======         ======
           nwk_isConnectionValid   00001476        dispatchFrame (nwk_frame)
               calls direct
               XSTACK = 00000000 ( 00000011 )
               ISTACK = 00000000 ( 00000001 )
    -------------------------------------------------------------------------
NEAR_CODE
  Relative segment, address: CODE 00001569 - 0000156D (0x5 bytes), align: 0
  Segment part 21.            Intra module refs:   nwk_allocateLocalRxPort
                                                   nwk_isConnectionValid
           LOCAL                   ADDRESS         
           =====                   =======         
           ?Subroutine3            00001569 
    -------------------------------------------------------------------------
NEAR_CODE
  Relative segment, address: CODE 0000156E - 0000156E (0x1 bytes), align: 0
  Segment part 22.            Intra module refs:   nwk_allocateLocalRxPort
                                                   nwk_isConnectionValid
           LOCAL                   ADDRESS         
           =====                   =======         
           ?Subroutine7            0000156E 
    -------------------------------------------------------------------------
NEAR_CODE
  Relative segment, address: CODE 0000156F - 00001576 (0x8 bytes), align: 0
  Segment part 23.            Intra module refs:   ?Subroutine7
                                                   nwk_isLinkDuplicate
    -------------------------------------------------------------------------
NEAR_CODE
  Relative segment, address: CODE 00001577 - 000016C3 (0x14d bytes), align: 0
  Segment part 24.
           ENTRY                   ADDRESS         REF BY
           =====                   =======         ======
           nwk_allocateLocalRxPort
                                   00001577        nwk_link (nwk_link)
                                                   smpl_send_link_reply (nwk_link)
               calls direct
               XSTACK = 00000000 ( 00000013 )
               ISTACK = 00000000 ( 00000001 )
    -------------------------------------------------------------------------
NEAR_CODE
  Relative segment, address: CODE 000016C4 - 0000172D (0x6a bytes), align: 0
  Segment part 25.
           ENTRY                   ADDRESS         REF BY
           =====                   =======         ======
           nwk_isValidReply        000016C4        nwk_processJoin (nwk_join)
                                                   nwk_processLink (nwk_link)
                                                   nwk_processMgmt (nwk_mgmt)
                                                   nwk_processPing (nwk_ping)
               calls direct
               XSTACK = 00000000 ( 0000000E )
    -------------------------------------------------------------------------
NEAR_CODE
  Relative segment, address: CODE 0000172E - 00001767 (0x3a bytes), align: 0
  Segment part 26.            Intra module refs:   nwk_getConnInfo
                                                   nwk_getNextConnection
           LOCAL                   ADDRESS         
           =====                   =======         
           map_lid2idx             0000172E 
               XSTACK = 00000009 ( 00000008 )
               ISTACK = 00000000 ( 00000001 )
    -------------------------------------------------------------------------
NEAR_CODE
  Relative segment, address: CODE 00001768 - 00001771 (0xa bytes), align: 0
  Segment part 27.            Intra module refs:   map_lid2idx
                                                   nwk_getNextConnection
           LOCAL                   ADDRESS         
           =====                   =======         
           ?Subroutine6            00001768 
    -------------------------------------------------------------------------
NEAR_CODE
  Relative segment, address: CODE 00001772 - 000017DE (0x6d bytes), align: 0
  Segment part 28.
           ENTRY                   ADDRESS         REF BY
           =====                   =======         ======
           nwk_findPeer            00001772        handleLinkRequest (nwk_link)
               calls direct
               XSTACK = 00000000 ( 0000000F )
    -------------------------------------------------------------------------
NEAR_CODE
  Relative segment, address: CODE 000017DF - 00001831 (0x53 bytes), align: 0
  Segment part 30.
           ENTRY                   ADDRESS         REF BY
           =====                   =======         ======
           nwk_getNumObjectFromMsg
                                   000017DF        smpl_send_link_reply (nwk_link)
               calls direct
               XSTACK = 00000000 ( 0000000D )
    -------------------------------------------------------------------------
NEAR_CODE
  Relative segment, address: CODE 00001832 - 00001836 (0x5 bytes), align: 0
  Segment part 31.            Intra module refs:   nwk_getNumObjectFromMsg
                                                   nwk_putNumObjectIntoMsg
           LOCAL                   ADDRESS         
           =====                   =======         
           ?Subroutine4            00001832 
    -------------------------------------------------------------------------
NEAR_CODE
  Relative segment, address: CODE 00001837 - 000018A5 (0x6f bytes), align: 0
  Segment part 32.
           ENTRY                   ADDRESS         REF BY
           =====                   =======         ======
           nwk_putNumObjectIntoMsg
                                   00001837        nwk_join (nwk_join)
                                                   nwk_link (nwk_link)
               calls direct
               XSTACK = 00000000 ( 00000013 )
    -------------------------------------------------------------------------
NEAR_CODE
  Relative segment, address: CODE 000018A6 - 000018A8 (0x3 bytes), align: 0
  Segment part 33.
           ENTRY                   ADDRESS         REF BY
           =====                   =======         ======
           nwk_NVObj               000018A6        SMPL_Ioctl (nwk_api)
    -------------------------------------------------------------------------
XDATA_ID
  Relative segment, address: CODE 00000142 - 0000016A (0x29 bytes), align: 0
  Segment part 7.             Intra module refs:   sPersistInfo

    *************************************************************************

  FILE NAME : C:\Users\dtung\Downloads\SimpliciTI-IAR-1.2.0\Projects\Examples\SRF04\AP_as_Data_Hub\IAR\CC1110-End_Device\Obj\nwk_api.r51
  PROGRAM MODULE, NAME : nwk_api

  SEGMENTS IN THE MODULE
  ======================
XDATA_Z
  Relative segment, address: XDATA 0000F44A - 0000F44A (0x1 bytes), align: 0
  Segment part 7.             Intra module refs:   SMPL_Init
                                                   SMPL_Ioctl
           LOCAL                   ADDRESS         
           =====                   =======         
           sInit_done              0000F44A 
    -------------------------------------------------------------------------
NEAR_CODE
  Relative segment, address: CODE 000018A9 - 000018D7 (0x2f bytes), align: 0
  Segment part 8.
           ENTRY                   ADDRESS         REF BY
           =====                   =======         ======
           SMPL_Init               000018A9        main (main_manyEDs_autoack)
               calls direct
               XSTACK = 00000000 ( 00000009 )
    -------------------------------------------------------------------------
NEAR_CODE
  Relative segment, address: CODE 000018D8 - 000018DC (0x5 bytes), align: 0
  Segment part 9.             Intra module refs:   SMPL_Init
           LOCAL                   ADDRESS         
           =====                   =======         
           ?Subroutine0            000018D8 
    -------------------------------------------------------------------------
NEAR_CODE
  Relative segment, address: CODE 000018DD - 000019AC (0xd0 bytes), align: 0
  Segment part 14.
           ENTRY                   ADDRESS         REF BY
           =====                   =======         ======
           SMPL_Receive            000018DD        linkTo (main_manyEDs_autoack)
               calls direct
               XSTACK = 00000000 ( 00000018 )
               ISTACK = 00000000 ( 00000001 )
    -------------------------------------------------------------------------
NEAR_CODE
  Relative segment, address: CODE 000019AD - 000019B1 (0x5 bytes), align: 0
  Segment part 15.            Intra module refs:   SMPL_Receive
           LOCAL                   ADDRESS         
           =====                   =======         
           ?Subroutine1            000019AD 
    -------------------------------------------------------------------------
NEAR_CODE
  Relative segment, address: CODE 000019B2 - 000019B4 (0x3 bytes), align: 0
  Segment part 16.
           ENTRY                   ADDRESS         REF BY
           =====                   =======         ======
           SMPL_Link               000019B2        linkTo (main_manyEDs_autoack)
               calls direct
    -------------------------------------------------------------------------
NEAR_CODE
  Relative segment, address: CODE 000019B5 - 000019B9 (0x5 bytes), align: 0
  Segment part 20.            Intra module refs:   SMPL_Ioctl
           LOCAL                   ADDRESS         
           =====                   =======         
           ?Subroutine2            000019B5 
    -------------------------------------------------------------------------
NEAR_CODE
  Relative segment, address: CODE 000019BA - 00001AEE (0x135 bytes), align: 0
  Segment part 21.
           ENTRY                   ADDRESS         REF BY
           =====                   =======         ======
           SMPL_Ioctl              000019BA        linkTo (main_manyEDs_autoack)
                                                   nwk_join (nwk_join)
                                                   nwk_link (nwk_link)
                                                   nwk_poll (nwk_mgmt)
               calls direct
               XSTACK = 00000000 ( 0000000F )
               ISTACK = 00000000 ( 00000001 )

    *************************************************************************

  FILE NAME : C:\Users\dtung\Downloads\SimpliciTI-IAR-1.2.0\Projects\Examples\SRF04\AP_as_Data_Hub\IAR\CC1110-End_Device\Obj\nwk_frame.r51
  PROGRAM MODULE, NAME : nwk_frame

  SEGMENTS IN THE MODULE
  ======================
XDATA_I
  Relative segment, address: XDATA 0000F5CA - 0000F5D5 (0xc bytes), align: 0
  Segment part 6.             Intra module refs:   dispatchFrame
           LOCAL                   ADDRESS         
           =====                   =======         
           func                    0000F5CA 
    -------------------------------------------------------------------------
XDATA_Z
  Relative segment, address: XDATA 0000F44B - 0000F44B (0x1 bytes), align: 0
  Segment part 8.             Intra module refs:   nwk_buildFrame
                                                   nwk_frameInit
           LOCAL                   ADDRESS         
           =====                   =======         
           sTRACTID                0000F44B 
    -------------------------------------------------------------------------
XDATA_Z
  Relative segment, address: XDATA 0000F44C - 0000F44D (0x2 bytes), align: 0
  Segment part 9.             Intra module refs:   ?Subroutine4
                                                   nwk_frameInit
                                                   nwk_sendAckReply
           LOCAL                   ADDRESS         
           =====                   =======         
           sMyAddr                 0000F44C 
    -------------------------------------------------------------------------
XDATA_Z
  Relative segment, address: XDATA 0000F44E - 0000F44E (0x1 bytes), align: 0
  Segment part 10.            Intra module refs:   nwk_buildFrame
                                                   nwk_frameInit
                                                   nwk_getMyRxType
                                                   nwk_sendAckReply
           LOCAL                   ADDRESS         
           =====                   =======         
           sMyRxType               0000F44E 
    -------------------------------------------------------------------------
XDATA_Z
  Relative segment, address: XDATA 0000F44F - 0000F44F (0x1 bytes), align: 0
  Segment part 11.            Intra module refs:   nwk_frameInit
                                                   nwk_sendAckReply
                                                   nwk_sendFrame
           LOCAL                   ADDRESS         
           =====                   =======         
           sMyTxType               0000F44F 
    -------------------------------------------------------------------------
NEAR_CODE
  Relative segment, address: CODE 00001AEF - 00001B12 (0x24 bytes), align: 0
  Segment part 12.
           ENTRY                   ADDRESS         REF BY
           =====                   =======         ======
           nwk_frameInit           00001AEF        nwk_nwkInit (nwk)
               calls direct
               ISTACK = 00000000 ( 00000002 )
    -------------------------------------------------------------------------
NEAR_CODE
  Relative segment, address: CODE 00001B13 - 00001B17 (0x5 bytes), align: 0
  Segment part 13.            Intra module refs:   nwk_frameInit
                                                   nwk_getMyRxType
           LOCAL                   ADDRESS         
           =====                   =======         
           ?Subroutine0            00001B13 
    -------------------------------------------------------------------------
NEAR_CODE
  Relative segment, address: CODE 00001B18 - 00001BCD (0xb6 bytes), align: 0
  Segment part 14.
           ENTRY                   ADDRESS         REF BY
           =====                   =======         ======
           nwk_buildFrame          00001B18        handleLinkRequest (nwk_link)
                                                   nwk_processPing (nwk_ping)
                                                   nwk_rawSend (nwk_ioctl)
                                                   smpl_send_link_reply (nwk_link)
               calls direct
               XSTACK = 0000000A ( 00000011 )
               ISTACK = 00000000 ( 00000001 )
    -------------------------------------------------------------------------
NEAR_CODE
  Relative segment, address: CODE 00001BCE - 00001BD2 (0x5 bytes), align: 0
  Segment part 15.            Intra module refs:   nwk_buildFrame
                                                   nwk_retrieveFrame
           LOCAL                   ADDRESS         
           =====                   =======         
           ?Subroutine1            00001BCE 
    -------------------------------------------------------------------------
NEAR_CODE
  Relative segment, address: CODE 00001BD3 - 00001BF5 (0x23 bytes), align: 0
  Segment part 17.
           ENTRY                   ADDRESS         REF BY
           =====                   =======         ======
           MRFI_RxCompleteISR      00001BD3        MRFI_RfIsr (mrfi)
               calls direct
               XSTACK = 00000000 ( 00000009 )
    -------------------------------------------------------------------------
NEAR_CODE
  Relative segment, address: CODE 00001BF6 - 00001BFA (0x5 bytes), align: 0
  Segment part 18.            Intra module refs:   MRFI_RxCompleteISR
                                                   nwk_sendAckReply
           LOCAL                   ADDRESS         
           =====                   =======         
           ?Subroutine2            00001BF6 
    -------------------------------------------------------------------------
NEAR_CODE
  Relative segment, address: CODE 00001BFB - 00001CF1 (0xf7 bytes), align: 0
  Segment part 19.
           ENTRY                   ADDRESS         REF BY
           =====                   =======         ======
           nwk_retrieveFrame       00001BFB        SMPL_Receive (nwk_api)
                                                   nwk_rawReceive (nwk_ioctl)
               calls direct
               XSTACK = 00000006 ( 00000011 )
               ISTACK = 00000000 ( 00000001 )
    -------------------------------------------------------------------------
NEAR_CODE
  Relative segment, address: CODE 00001CF2 - 00001D06 (0x15 bytes), align: 0
  Segment part 20.            Intra module refs:   nwk_retrieveFrame
           LOCAL                   ADDRESS         
           =====                   =======         
           ?Subroutine3            00001CF2 
    -------------------------------------------------------------------------
NEAR_CODE
  Relative segment, address: CODE 00001D07 - 00001DAF (0xa9 bytes), align: 0
  Segment part 21.            Intra module refs:   MRFI_RxCompleteISR
           LOCAL                   ADDRESS         
           =====                   =======         
           dispatchFrame           00001D07 
               calls direct
               XSTACK = 00000009 ( 00000010 )
    -------------------------------------------------------------------------
NEAR_CODE
  Relative segment, address: CODE 00001DB0 - 00001DB8 (0x9 bytes), align: 0
  Segment part 22.            Intra module refs:   dispatchFrame
           LOCAL                   ADDRESS         
           =====                   =======         
           ?Subroutine7            00001DB0 
    -------------------------------------------------------------------------
NEAR_CODE
  Relative segment, address: CODE 00001DB9 - 00001DC0 (0x8 bytes), align: 0
  Segment part 23.            Intra module refs:   MRFI_RxCompleteISR
                                                   dispatchFrame
                                                   nwk_sendFrame
           LOCAL                   ADDRESS         
           =====                   =======         
           ?Subroutine6            00001DB9 
    -------------------------------------------------------------------------
NEAR_CODE
  Relative segment, address: CODE 00001DC1 - 00001DCB (0xb bytes), align: 0
  Segment part 24.            Intra module refs:   dispatchFrame
                                                   nwk_retrieveFrame
           LOCAL                   ADDRESS         
           =====                   =======         
           ?Subroutine5            00001DC1 
    -------------------------------------------------------------------------
NEAR_CODE
  Relative segment, address: CODE 00001DCC - 00001DDB (0x10 bytes), align: 0
  Segment part 25.            Intra module refs:   dispatchFrame
                                                   nwk_buildFrame
           LOCAL                   ADDRESS         
           =====                   =======         
           ?Subroutine4            00001DCC 
    -------------------------------------------------------------------------
NEAR_CODE
  Relative segment, address: CODE 00001DDC - 00001E17 (0x3c bytes), align: 0
  Segment part 26.
           ENTRY                   ADDRESS         REF BY
           =====                   =======         ======
           nwk_sendFrame           00001DDC        handleLinkRequest (nwk_link)
                                                   nwk_processPing (nwk_ping)
                                                   nwk_rawSend (nwk_ioctl)
                                                   smpl_send_link_reply (nwk_link)
               calls direct
               XSTACK = 00000000 ( 00000008 )
               ISTACK = 00000000 ( 00000001 )
    -------------------------------------------------------------------------
NEAR_CODE
  Relative segment, address: CODE 00001E18 - 00001E23 (0xc bytes), align: 0
  Segment part 27.
           ENTRY                   ADDRESS         REF BY
           =====                   =======         ======
           nwk_getMyRxType         00001E18        nwk_link (nwk_link)
                                                   smpl_send_link_reply (nwk_link)
               ISTACK = 00000000 ( 00000002 )
    -------------------------------------------------------------------------
NEAR_CODE
  Relative segment, address: CODE 00001E24 - 00001ED1 (0xae bytes), align: 0
  Segment part 28.
           ENTRY                   ADDRESS         REF BY
           =====                   =======         ======
           nwk_sendAckReply        00001E24        nwk_isConnectionValid (nwk)
               calls direct
               XSTACK = 00000000 ( 0000003B )
               ISTACK = 00000000 ( 00000001 )
    -------------------------------------------------------------------------
XDATA_ID
  Relative segment, address: CODE 0000016B - 00000176 (0xc bytes), align: 0
  Segment part 7.             Intra module refs:   func

    *************************************************************************

  FILE NAME : C:\Users\dtung\Downloads\SimpliciTI-IAR-1.2.0\Projects\Examples\SRF04\AP_as_Data_Hub\IAR\CC1110-End_Device\Obj\nwk_freq.r51
  PROGRAM MODULE, NAME : nwk_freq

  SEGMENTS IN THE MODULE
  ======================
NEAR_CODE
  Relative segment, address: CODE 00001ED2 - 00001ED2 (0x1 bytes), align: 0
  Segment part 6.
           ENTRY                   ADDRESS         REF BY
           =====                   =======         ======
           nwk_freqInit            00001ED2        nwk_nwkInit (nwk)
    -------------------------------------------------------------------------
NEAR_CODE
  Relative segment, address: CODE 00001ED3 - 00001ED5 (0x3 bytes), align: 0
  Segment part 7.
           ENTRY                   ADDRESS         REF BY
           =====                   =======         ======
           nwk_processFreq         00001ED3        Segment part 7 (nwk_frame)
               is indirectly called

    *************************************************************************

  FILE NAME : C:\Users\dtung\Downloads\SimpliciTI-IAR-1.2.0\Projects\Examples\SRF04\AP_as_Data_Hub\IAR\CC1110-End_Device\Obj\nwk_globals.r51
  PROGRAM MODULE, NAME : nwk_globals

  SEGMENTS IN THE MODULE
  ======================
XDATA_I
  Relative segment, address: XDATA 0000F5D6 - 0000F5D9 (0x4 bytes), align: 0
  Segment part 6.             Intra module refs:   nwk_getMyAddress
                                                   nwk_globalsInit
           LOCAL                   ADDRESS         
           =====                   =======         
           sMyROMAddress           0000F5D6 
    -------------------------------------------------------------------------
XDATA_Z
  Relative segment, address: XDATA 0000F450 - 0000F453 (0x4 bytes), align: 0
  Segment part 8.             Intra module refs:   nwk_getAPAddress
                                                   nwk_globalsInit
                                                   nwk_setAPAddress
           LOCAL                   ADDRESS         
           =====                   =======         
           sAPAddress              0000F450 
    -------------------------------------------------------------------------
XDATA_Z
  Relative segment, address: XDATA 0000F454 - 0000F457 (0x4 bytes), align: 0
  Segment part 9.             Intra module refs:   nwk_getMyAddress
                                                   nwk_globalsInit
                                                   nwk_setMyAddress
           LOCAL                   ADDRESS         
           =====                   =======         
           sMyRAMAddress           0000F454 
    -------------------------------------------------------------------------
XDATA_Z
  Relative segment, address: XDATA 0000F458 - 0000F458 (0x1 bytes), align: 0
  Segment part 10.            Intra module refs:   nwk_getMyAddress
                                                   nwk_globalsInit
                                                   nwk_setMyAddress
           LOCAL                   ADDRESS         
           =====                   =======         
           sRAMAddressIsSet        0000F458 
    -------------------------------------------------------------------------
XDATA_I
  Relative segment, address: XDATA 0000F5DA - 0000F5DE (0x5 bytes), align: 0
  Segment part 11.            Intra module refs:   nwk_getFWVersion
           LOCAL                   ADDRESS         
           =====                   =======         
           sVersionInfo            0000F5DA 
    -------------------------------------------------------------------------
NEAR_CODE
  Relative segment, address: CODE 00001ED6 - 00001F18 (0x43 bytes), align: 0
  Segment part 13.
           ENTRY                   ADDRESS         REF BY
           =====                   =======         ======
           nwk_globalsInit         00001ED6        nwk_nwkInit (nwk)
               calls direct
               XSTACK = 00000000 ( 0000000B )
    -------------------------------------------------------------------------
NEAR_CODE
  Relative segment, address: CODE 00001F19 - 00001F1B (0x3 bytes), align: 0
  Segment part 14.            Intra module refs:   nwk_getAPAddress
                                                   nwk_setAPAddress
           LOCAL                   ADDRESS         
           =====                   =======         
           ?Subroutine0            00001F19 
    -------------------------------------------------------------------------
NEAR_CODE
  Relative segment, address: CODE 00001F1C - 00001F20 (0x5 bytes), align: 0
  Segment part 15.            Intra module refs:   ?Subroutine0
                                                   nwk_globalsInit
                                                   nwk_setMyAddress
    -------------------------------------------------------------------------
NEAR_CODE
  Relative segment, address: CODE 00001F21 - 00001F39 (0x19 bytes), align: 0
  Segment part 16.
           ENTRY                   ADDRESS         REF BY
           =====                   =======         ======
           nwk_getMyAddress        00001F21        SMPL_Init (nwk_api)
                                                   nwk_deviceAddress (nwk_ioctl)
                                                   nwk_frameInit (nwk_frame)
                                                   nwk_isValidReply (nwk)
                                                   nwk_processMgmt (nwk_mgmt)
               ISTACK = 00000000 ( 00000002 )
    -------------------------------------------------------------------------
NEAR_CODE
  Relative segment, address: CODE 00001F3A - 00001F3E (0x5 bytes), align: 0
  Segment part 17.
           ENTRY                   ADDRESS         REF BY
           =====                   =======         ======
           nwk_getFWVersion        00001F3A        SMPL_Ioctl (nwk_api)
    -------------------------------------------------------------------------
NEAR_CODE
  Relative segment, address: CODE 00001F3F - 00001F41 (0x3 bytes), align: 0
  Segment part 18.
           ENTRY                   ADDRESS         REF BY
           =====                   =======         ======
           nwk_getProtocolVersion
                                   00001F3F        SMPL_Ioctl (nwk_api)
                                                   nwk_join (nwk_join)
                                                   nwk_link (nwk_link)
                                                   smpl_send_link_reply (nwk_link)
    -------------------------------------------------------------------------
NEAR_CODE
  Relative segment, address: CODE 00001F42 - 00001F72 (0x31 bytes), align: 0
  Segment part 19.
           ENTRY                   ADDRESS         REF BY
           =====                   =======         ======
           nwk_setMyAddress        00001F42        nwk_deviceAddress (nwk_ioctl)
               calls direct
               XSTACK = 00000000 ( 0000000B )
    -------------------------------------------------------------------------
NEAR_CODE
  Relative segment, address: CODE 00001F73 - 00001F91 (0x1f bytes), align: 0
  Segment part 20.
           ENTRY                   ADDRESS         REF BY
           =====                   =======         ======
           nwk_setAPAddress        00001F73        nwk_join (nwk_join)
               calls direct
               XSTACK = 00000000 ( 0000000B )
    -------------------------------------------------------------------------
NEAR_CODE
  Relative segment, address: CODE 00001F92 - 00001FEC (0x5b bytes), align: 0
  Segment part 21.
           ENTRY                   ADDRESS         REF BY
           =====                   =======         ======
           nwk_getAPAddress        00001F92        nwk_poll (nwk_mgmt)
               calls direct
               XSTACK = 00000000 ( 0000000F )
    -------------------------------------------------------------------------
NEAR_CODE
  Relative segment, address: CODE 00001FED - 00001FF1 (0x5 bytes), align: 0
  Segment part 22.
           ENTRY                   ADDRESS         REF BY
           =====                   =======         ======
           nwk_getBCastAddress     00001FED        nwk_join (nwk_join)
                                                   nwk_link (nwk_link)
                                                   nwk_nwkInit (nwk)
    -------------------------------------------------------------------------
XDATA_ID
  Relative segment, address: CODE 00000177 - 0000017A (0x4 bytes), align: 0
  Segment part 7.             Intra module refs:   sMyROMAddress
    -------------------------------------------------------------------------
XDATA_ID
  Relative segment, address: CODE 0000017B - 0000017F (0x5 bytes), align: 0
  Segment part 12.            Intra module refs:   sVersionInfo

    *************************************************************************

  FILE NAME : C:\Users\dtung\Downloads\SimpliciTI-IAR-1.2.0\Projects\Examples\SRF04\AP_as_Data_Hub\IAR\CC1110-End_Device\Obj\nwk_ioctl.r51
  PROGRAM MODULE, NAME : nwk_ioctl

  SEGMENTS IN THE MODULE
  ======================
NEAR_CODE
  Relative segment, address: CODE 00001FF2 - 00002068 (0x77 bytes), align: 0
  Segment part 6.
           ENTRY                   ADDRESS         REF BY
           =====                   =======         ======
           nwk_rawSend             00001FF2        SMPL_Ioctl (nwk_api)
               calls direct
               XSTACK = 00000000 ( 0000000D )
    -------------------------------------------------------------------------
NEAR_CODE
  Relative segment, address: CODE 00002069 - 0000206D (0x5 bytes), align: 0
  Segment part 7.             Intra module refs:   nwk_deviceAddress
                                                   nwk_radioControl
                                                   nwk_rawSend
           LOCAL                   ADDRESS         
           =====                   =======         
           ?Subroutine0            00002069 
    -------------------------------------------------------------------------
NEAR_CODE
  Relative segment, address: CODE 0000206E - 000020D3 (0x66 bytes), align: 0
  Segment part 8.
           ENTRY                   ADDRESS         REF BY
           =====                   =======         ======
           nwk_rawReceive          0000206E        SMPL_Ioctl (nwk_api)
               calls direct
               XSTACK = 00000000 ( 00000012 )
               ISTACK = 00000000 ( 00000001 )
    -------------------------------------------------------------------------
NEAR_CODE
  Relative segment, address: CODE 000020D4 - 000020D8 (0x5 bytes), align: 0
  Segment part 9.             Intra module refs:   nwk_connectionControl
                                                   nwk_rawReceive
           LOCAL                   ADDRESS         
           =====                   =======         
           ?Subroutine1            000020D4 
    -------------------------------------------------------------------------
NEAR_CODE
  Relative segment, address: CODE 000020D9 - 00002190 (0xb8 bytes), align: 0
  Segment part 10.
           ENTRY                   ADDRESS         REF BY
           =====                   =======         ======
           nwk_radioControl        000020D9        SMPL_Ioctl (nwk_api)
               calls direct
               XSTACK = 00000000 ( 0000000D )
               ISTACK = 00000000 ( 00000001 )
    -------------------------------------------------------------------------
NEAR_CODE
  Relative segment, address: CODE 00002191 - 000021D5 (0x45 bytes), align: 0
  Segment part 11.
           ENTRY                   ADDRESS         REF BY
           =====                   =======         ======
           nwk_deviceAddress       00002191        SMPL_Ioctl (nwk_api)
               calls direct
               XSTACK = 00000000 ( 0000000D )
    -------------------------------------------------------------------------
NEAR_CODE
  Relative segment, address: CODE 000021D6 - 000021FF (0x2a bytes), align: 0
  Segment part 12.
           ENTRY                   ADDRESS         REF BY
           =====                   =======         ======
           nwk_connectionControl   000021D6        SMPL_Ioctl (nwk_api)
               calls direct
               XSTACK = 00000000 ( 00000009 )

    *************************************************************************

  FILE NAME : C:\Users\dtung\Downloads\SimpliciTI-IAR-1.2.0\Projects\Examples\SRF04\AP_as_Data_Hub\IAR\CC1110-End_Device\Obj\nwk_join.r51
  PROGRAM MODULE, NAME : nwk_join

  SEGMENTS IN THE MODULE
  ======================
XDATA_Z
  Relative segment, address: XDATA 0000F459 - 0000F45C (0x4 bytes), align: 0
  Segment part 6.             Intra module refs:   nwk_getJoinToken
                                                   nwk_join
                                                   nwk_joinInit
                                                   nwk_setJoinToken
           LOCAL                   ADDRESS         
           =====                   =======         
           sJoinToken              0000F459 
    -------------------------------------------------------------------------
XDATA_Z
  Relative segment, address: XDATA 0000F45D - 0000F45E (0x2 bytes), align: 0
  Segment part 7.             Intra module refs:   nwk_joinInit
           LOCAL                   ADDRESS         
           =====                   =======         
           spCallback              0000F45D 
    -------------------------------------------------------------------------
XDATA_Z
  Relative segment, address: XDATA 0000F45F - 0000F45F (0x1 bytes), align: 0
  Segment part 8.             Intra module refs:   nwk_join
                                                   nwk_joinInit
                                                   nwk_processJoin
           LOCAL                   ADDRESS         
           =====                   =======         
           sTid                    0000F45F 
    -------------------------------------------------------------------------
NEAR_CODE
  Relative segment, address: CODE 00002200 - 0000222F (0x30 bytes), align: 0
  Segment part 9.
           ENTRY                   ADDRESS         REF BY
           =====                   =======         ======
           nwk_joinInit            00002200        nwk_nwkInit (nwk)
               calls direct
               XSTACK = 00000000 ( 00000008 )
    -------------------------------------------------------------------------
NEAR_CODE
  Relative segment, address: CODE 00002230 - 00002234 (0x5 bytes), align: 0
  Segment part 10.            Intra module refs:   nwk_getJoinToken
                                                   nwk_joinInit
                                                   nwk_processJoin
           LOCAL                   ADDRESS         
           =====                   =======         
           ?Subroutine0            00002230 
    -------------------------------------------------------------------------
NEAR_CODE
  Relative segment, address: CODE 00002235 - 00002257 (0x23 bytes), align: 0
  Segment part 11.
           ENTRY                   ADDRESS         REF BY
           =====                   =======         ======
           nwk_setJoinToken        00002235        SMPL_Ioctl (nwk_api)
               XSTACK = 00000000 ( 0000000B )
    -------------------------------------------------------------------------
NEAR_CODE
  Relative segment, address: CODE 00002258 - 0000226F (0x18 bytes), align: 0
  Segment part 12.
           ENTRY                   ADDRESS         REF BY
           =====                   =======         ======
           nwk_getJoinToken        00002258        SMPL_Ioctl (nwk_api)
               XSTACK = 00000000 ( 00000008 )
    -------------------------------------------------------------------------
NEAR_CODE
  Relative segment, address: CODE 00002270 - 000023A6 (0x137 bytes), align: 0
  Segment part 13.
           ENTRY                   ADDRESS         REF BY
           =====                   =======         ======
           nwk_join                00002270        SMPL_Init (nwk_api)
               calls direct
               XSTACK = 00000000 ( 00000022 )
               ISTACK = 00000000 ( 00000001 )
    -------------------------------------------------------------------------
NEAR_CODE
  Relative segment, address: CODE 000023A7 - 000023C6 (0x20 bytes), align: 0
  Segment part 14.
           ENTRY                   ADDRESS         REF BY
           =====                   =======         ======
           nwk_processJoin         000023A7        Segment part 7 (nwk_frame)
               calls direct, is indirectly called
               XSTACK = 00000000 ( 00000008 )

    *************************************************************************

  FILE NAME : C:\Users\dtung\Downloads\SimpliciTI-IAR-1.2.0\Projects\Examples\SRF04\AP_as_Data_Hub\IAR\CC1110-End_Device\Obj\nwk_link.r51
  PROGRAM MODULE, NAME : nwk_link

  SEGMENTS IN THE MODULE
  ======================
XDATA_Z
  Relative segment, address: XDATA 0000F460 - 0000F463 (0x4 bytes), align: 0
  Segment part 7.             Intra module refs:   nwk_getLinkToken
                                                   nwk_link
                                                   nwk_linkInit
                                                   nwk_setLinkToken
                                                   smpl_send_link_reply
           LOCAL                   ADDRESS         
           =====                   =======         
           sLinkToken              0000F460 
    -------------------------------------------------------------------------
XDATA_Z
  Relative segment, address: XDATA 0000F464 - 0000F464 (0x1 bytes), align: 0
  Segment part 8.             Intra module refs:   smpl_send_link_reply
           LOCAL                   ADDRESS         
           =====                   =======         
           sListenActive           0000F464 
    -------------------------------------------------------------------------
XDATA_Z
  Relative segment, address: XDATA 0000F465 - 0000F466 (0x2 bytes), align: 0
  Segment part 9.             Intra module refs:   nwk_linkInit
                                                   smpl_send_link_reply
           LOCAL                   ADDRESS         
           =====                   =======         
           sServiceLinkID          0000F465 
    -------------------------------------------------------------------------
XDATA_Z
  Relative segment, address: XDATA 0000F467 - 0000F467 (0x1 bytes), align: 0
  Segment part 10.            Intra module refs:   smpl_send_link_reply
           LOCAL                   ADDRESS         
           =====                   =======         
           sNumLinkers             0000F467 
    -------------------------------------------------------------------------
XDATA_Z
  Relative segment, address: XDATA 0000F468 - 0000F468 (0x1 bytes), align: 0
  Segment part 11.            Intra module refs:   nwk_link
                                                   nwk_linkInit
                                                   nwk_processLink
           LOCAL                   ADDRESS         
           =====                   =======         
           sTid                    0000F468 
    -------------------------------------------------------------------------
NEAR_CODE
  Relative segment, address: CODE 000023C7 - 00002410 (0x4a bytes), align: 0
  Segment part 12.
           ENTRY                   ADDRESS         REF BY
           =====                   =======         ======
           nwk_linkInit            000023C7        nwk_nwkInit (nwk)
               calls direct
               XSTACK = 00000000 ( 0000000B )
    -------------------------------------------------------------------------
NEAR_CODE
  Relative segment, address: CODE 00002411 - 00002431 (0x21 bytes), align: 0
  Segment part 13.
           ENTRY                   ADDRESS         REF BY
           =====                   =======         ======
           nwk_setLinkToken        00002411        SMPL_Ioctl (nwk_api)
                                                   nwk_join (nwk_join)
               XSTACK = 00000000 ( 0000000B )
    -------------------------------------------------------------------------
NEAR_CODE
  Relative segment, address: CODE 00002432 - 00002447 (0x16 bytes), align: 0
  Segment part 14.
           ENTRY                   ADDRESS         REF BY
           =====                   =======         ======
           nwk_getLinkToken        00002432        SMPL_Ioctl (nwk_api)
               XSTACK = 00000000 ( 00000008 )
    -------------------------------------------------------------------------
NEAR_CODE
  Relative segment, address: CODE 00002448 - 0000244C (0x5 bytes), align: 0
  Segment part 15.            Intra module refs:   nwk_getLinkToken
                                                   nwk_processLink
           LOCAL                   ADDRESS         
           =====                   =======         
           ?Subroutine1            00002448 
    -------------------------------------------------------------------------
NEAR_CODE
  Relative segment, address: CODE 0000244D - 0000244F (0x3 bytes), align: 0
  Segment part 17.            Intra module refs:   nwk_link
           LOCAL                   ADDRESS         
           =====                   =======         
           ?Subroutine0            0000244D 
    -------------------------------------------------------------------------
NEAR_CODE
  Relative segment, address: CODE 00002450 - 00002454 (0x5 bytes), align: 0
  Segment part 18.            Intra module refs:   ?Subroutine0
                                                   nwk_setLinkToken
    -------------------------------------------------------------------------
NEAR_CODE
  Relative segment, address: CODE 00002455 - 00002635 (0x1e1 bytes), align: 0
  Segment part 19.
           ENTRY                   ADDRESS         REF BY
           =====                   =======         ======
           nwk_link                00002455        SMPL_Link (nwk_api)
               calls direct
               XSTACK = 00000000 ( 00000021 )
               ISTACK = 00000000 ( 00000001 )
    -------------------------------------------------------------------------
NEAR_CODE
  Relative segment, address: CODE 00002636 - 00002817 (0x1e2 bytes), align: 0
  Segment part 20.            Intra module refs:   handleLinkRequest
           LOCAL                   ADDRESS         
           =====                   =======         
           smpl_send_link_reply    00002636 
               calls direct
               XSTACK = 00000010 ( 00000019 )
               ISTACK = 00000000 ( 00000001 )
    -------------------------------------------------------------------------
NEAR_CODE
  Relative segment, address: CODE 00002818 - 0000281F (0x8 bytes), align: 0
  Segment part 21.            Intra module refs:   handleLinkRequest
                                                   nwk_link
                                                   smpl_send_link_reply
           LOCAL                   ADDRESS         
           =====                   =======         
           ?Subroutine6            00002818 
    -------------------------------------------------------------------------
NEAR_CODE
  Relative segment, address: CODE 00002820 - 00002826 (0x7 bytes), align: 0
  Segment part 22.            Intra module refs:   smpl_send_link_reply
           LOCAL                   ADDRESS         
           =====                   =======         
           ?Subroutine5            00002820 
    -------------------------------------------------------------------------
NEAR_CODE
  Relative segment, address: CODE 00002827 - 00002833 (0xd bytes), align: 0
  Segment part 23.            Intra module refs:   ?Subroutine5
                                                   smpl_send_link_reply
           LOCAL                   ADDRESS         
           =====                   =======         
           ?Subroutine7            00002827 
    -------------------------------------------------------------------------
NEAR_CODE
  Relative segment, address: CODE 00002834 - 00002844 (0x11 bytes), align: 0
  Segment part 24.            Intra module refs:   smpl_send_link_reply
           LOCAL                   ADDRESS         
           =====                   =======         
           ?Subroutine4            00002834 
    -------------------------------------------------------------------------
NEAR_CODE
  Relative segment, address: CODE 00002845 - 00002855 (0x11 bytes), align: 0
  Segment part 25.            Intra module refs:   smpl_send_link_reply
           LOCAL                   ADDRESS         
           =====                   =======         
           ?Subroutine3            00002845 
    -------------------------------------------------------------------------
NEAR_CODE
  Relative segment, address: CODE 00002856 - 00002876 (0x21 bytes), align: 0
  Segment part 26.            Intra module refs:   smpl_send_link_reply
           LOCAL                   ADDRESS         
           =====                   =======         
           ?Subroutine2            00002856 
    -------------------------------------------------------------------------
NEAR_CODE
  Relative segment, address: CODE 00002877 - 000028A1 (0x2b bytes), align: 0
  Segment part 27.
           ENTRY                   ADDRESS         REF BY
           =====                   =======         ======
           nwk_processLink         00002877        Segment part 7 (nwk_frame)
               calls direct, is indirectly called
               XSTACK = 00000000 ( 00000008 )
    -------------------------------------------------------------------------
NEAR_CODE
  Relative segment, address: CODE 000028A2 - 00002976 (0xd5 bytes), align: 0
  Segment part 30.            Intra module refs:   nwk_processLink
           LOCAL                   ADDRESS         
           =====                   =======         
           handleLinkRequest       000028A2 
               calls direct
               XSTACK = 00000008 ( 00000012 )
               ISTACK = 00000000 ( 00000001 )

    *************************************************************************

  FILE NAME : C:\Users\dtung\Downloads\SimpliciTI-IAR-1.2.0\Projects\Examples\SRF04\AP_as_Data_Hub\IAR\CC1110-End_Device\Obj\nwk_mgmt.r51
  PROGRAM MODULE, NAME : nwk_mgmt

  SEGMENTS IN THE MODULE
  ======================
XDATA_Z
  Relative segment, address: XDATA 0000F469 - 0000F46A (0x2 bytes), align: 0
  Segment part 6.             Intra module refs:   ?Subroutine1
                                                   nwk_poll
           LOCAL                   ADDRESS         
           =====                   =======         
           sAPAddr                 0000F469 
    -------------------------------------------------------------------------
XDATA_Z
  Relative segment, address: XDATA 0000F46B - 0000F46B (0x1 bytes), align: 0
  Segment part 7.             Intra module refs:   nwk_mgmtInit
                                                   nwk_poll
                                                   nwk_processMgmt
           LOCAL                   ADDRESS         
           =====                   =======         
           sTid                    0000F46B 
    -------------------------------------------------------------------------
NEAR_CODE
  Relative segment, address: CODE 00002977 - 00002987 (0x11 bytes), align: 0
  Segment part 8.
           ENTRY                   ADDRESS         REF BY
           =====                   =======         ======
           nwk_mgmtInit            00002977        nwk_nwkInit (nwk)
               calls direct
               ISTACK = 00000000 ( 00000002 )
    -------------------------------------------------------------------------
NEAR_CODE
  Relative segment, address: CODE 00002988 - 000029D6 (0x4f bytes), align: 0
  Segment part 9.
           ENTRY                   ADDRESS         REF BY
           =====                   =======         ======
           nwk_processMgmt         00002988        Segment part 7 (nwk_frame)
               calls direct, is indirectly called
               XSTACK = 00000000 ( 0000000B )
    -------------------------------------------------------------------------
NEAR_CODE
  Relative segment, address: CODE 000029D7 - 000029DB (0x5 bytes), align: 0
  Segment part 10.            Intra module refs:   nwk_poll
                                                   nwk_processMgmt
           LOCAL                   ADDRESS         
           =====                   =======         
           ?Subroutine0            000029D7 
    -------------------------------------------------------------------------
NEAR_CODE
  Relative segment, address: CODE 000029DC - 00002A84 (0xa9 bytes), align: 0
  Segment part 11.
           ENTRY                   ADDRESS         REF BY
           =====                   =======         ======
           nwk_poll                000029DC        SMPL_Receive (nwk_api)
               calls direct
               XSTACK = 00000000 ( 00000018 )
               ISTACK = 00000000 ( 00000001 )
    -------------------------------------------------------------------------
NEAR_CODE
  Relative segment, address: CODE 00002A85 - 00002A90 (0xc bytes), align: 0
  Segment part 12.            Intra module refs:   nwk_poll
           LOCAL                   ADDRESS         
           =====                   =======         
           ?Subroutine1            00002A85 

    *************************************************************************

  FILE NAME : C:\Users\dtung\Downloads\SimpliciTI-IAR-1.2.0\Projects\Examples\SRF04\AP_as_Data_Hub\IAR\CC1110-End_Device\Obj\nwk_ping.r51
  PROGRAM MODULE, NAME : nwk_ping

  SEGMENTS IN THE MODULE
  ======================
XDATA_Z
  Relative segment, address: XDATA 0000F46C - 0000F46C (0x1 bytes), align: 0
  Segment part 6.             Intra module refs:   nwk_pingInit
                                                   nwk_processPing
           LOCAL                   ADDRESS         
           =====                   =======         
           sTid                    0000F46C 
    -------------------------------------------------------------------------
NEAR_CODE
  Relative segment, address: CODE 00002A91 - 00002AA1 (0x11 bytes), align: 0
  Segment part 7.
           ENTRY                   ADDRESS         REF BY
           =====                   =======         ======
           nwk_pingInit            00002A91        nwk_nwkInit (nwk)
               calls direct
               ISTACK = 00000000 ( 00000002 )
    -------------------------------------------------------------------------
NEAR_CODE
  Relative segment, address: CODE 00002AA2 - 00002B29 (0x88 bytes), align: 0
  Segment part 9.
           ENTRY                   ADDRESS         REF BY
           =====                   =======         ======
           nwk_processPing         00002AA2        Segment part 7 (nwk_frame)
               calls direct, is indirectly called
               XSTACK = 00000000 ( 0000000D )

    *************************************************************************

  FILE NAME : C:\Users\dtung\Downloads\SimpliciTI-IAR-1.2.0\Projects\Examples\SRF04\AP_as_Data_Hub\IAR\CC1110-End_Device\Obj\nwk_pll.r51
    *************************************************************************

  FILE NAME : C:\Users\dtung\Downloads\SimpliciTI-IAR-1.2.0\Projects\Examples\SRF04\AP_as_Data_Hub\IAR\CC1110-End_Device\Obj\nwk_QMgmt.r51
  PROGRAM MODULE, NAME : nwk_QMgmt

  SEGMENTS IN THE MODULE
  ======================
XDATA_Z
  Relative segment, address: XDATA 0000F46D - 0000F4D0 (0x64 bytes), align: 0
  Segment part 7.             Intra module refs:   nwk_QInit
                                                   nwk_QadjustOrder
                                                   nwk_QfindOldest
                                                   nwk_QfindSlot
           LOCAL                   ADDRESS         
           =====                   =======         
           sInFrameQ               0000F46D 
    -------------------------------------------------------------------------
XDATA_Z
  Relative segment, address: XDATA 0000F4D1 - 0000F534 (0x64 bytes), align: 0
  Segment part 8.             Intra module refs:   nwk_QInit
                                                   nwk_QfindSlot
           LOCAL                   ADDRESS         
           =====                   =======         
           sOutFrameQ              0000F4D1 
    -------------------------------------------------------------------------
NEAR_CODE
  Relative segment, address: CODE 00002B2A - 00002B63 (0x3a bytes), align: 0
  Segment part 9.
           ENTRY                   ADDRESS         REF BY
           =====                   =======         ======
           nwk_QInit               00002B2A        nwk_nwkInit (nwk)
               calls direct
               XSTACK = 00000000 ( 0000000B )
    -------------------------------------------------------------------------
NEAR_CODE
  Relative segment, address: CODE 00002B64 - 00002BFB (0x98 bytes), align: 0
  Segment part 10.
           ENTRY                   ADDRESS         REF BY
           =====                   =======         ======
           nwk_QfindSlot           00002B64        MRFI_RxCompleteISR (nwk_frame)
                                                   nwk_buildFrame (nwk_frame)
               calls direct
               XSTACK = 00000000 ( 0000000A )
               ISTACK = 00000000 ( 00000001 )
    -------------------------------------------------------------------------
NEAR_CODE
  Relative segment, address: CODE 00002BFC - 00002C3F (0x44 bytes), align: 0
  Segment part 11.            Intra module refs:   nwk_QfindSlot
           ENTRY                   ADDRESS         REF BY
           =====                   =======         ======
           nwk_QadjustOrder        00002BFC        nwk_retrieveFrame (nwk_frame)
               XSTACK = 0000000A ( 00000008 )
    -------------------------------------------------------------------------
NEAR_CODE
  Relative segment, address: CODE 00002C40 - 00002E19 (0x1da bytes), align: 0
  Segment part 12.
           ENTRY                   ADDRESS         REF BY
           =====                   =======         ======
           nwk_QfindOldest         00002C40        nwk_retrieveFrame (nwk_frame)
               calls direct
               XSTACK = 00000000 ( 0000001B )
               ISTACK = 00000000 ( 00000001 )
    -------------------------------------------------------------------------
NEAR_CODE
  Relative segment, address: CODE 00002E1A - 00002E1B (0x2 bytes), align: 0
  Segment part 13.            Intra module refs:   nwk_QfindOldest
           LOCAL                   ADDRESS         
           =====                   =======         
           ?Subroutine0            00002E1A 
    -------------------------------------------------------------------------
NEAR_CODE
  Relative segment, address: CODE 00002E1C - 00002E22 (0x7 bytes), align: 0
  Segment part 14.            Intra module refs:   ?Subroutine0
                                                   nwk_QfindOldest

    *************************************************************************

  FILE NAME : C:\Users\dtung\Downloads\SimpliciTI-IAR-1.2.0\Projects\Examples\SRF04\AP_as_Data_Hub\IAR\CC1110-End_Device\Obj\nwk_security.r51
  PROGRAM MODULE, NAME : nwk_security

  SEGMENTS IN THE MODULE
  ======================
NEAR_CODE
  Relative segment, address: CODE 00002E23 - 00002E23 (0x1 bytes), align: 0
  Segment part 6.
           ENTRY                   ADDRESS         REF BY
           =====                   =======         ======
           nwk_securityInit        00002E23        nwk_nwkInit (nwk)
    -------------------------------------------------------------------------
NEAR_CODE
  Relative segment, address: CODE 00002E24 - 00002E26 (0x3 bytes), align: 0
  Segment part 7.
           ENTRY                   ADDRESS         REF BY
           =====                   =======         ======
           nwk_processSecurity     00002E24        Segment part 7 (nwk_frame)
               is indirectly called

    *************************************************************************

  FILE NAME : C:\Program Files\IAR Systems\Embedded Workbench 7.2\8051\LIB\CLIB\cl-pli-nlxd-1e16x01.r51
  LIBRARY MODULE, NAME : ?cexit

  SEGMENTS IN THE MODULE
  ======================
CSTART
  Relative segment, address: CODE 00000086 - 0000008A (0x5 bytes), align: 0
  Segment part 0.
           ENTRY                   ADDRESS         REF BY
           =====                   =======         ======
           exit                    00000086        ?call_main (?cmain)
           ?C_EXIT                 00000086 
           ?ROM_MONITOR_NOPS       00000086 

    -------------------------------------------------------------------------
  LIBRARY MODULE, NAME : ?cmain

  SEGMENTS IN THE MODULE
  ======================
CSTART
  Relative segment, address: CODE 0000008B, align: 0
  Segment part 5.
           ENTRY                   ADDRESS         REF BY
           =====                   =======         ======
           ?cmain                  0000008B        Segment part 13 (CSTARTUP)
               calls direct
    -------------------------------------------------------------------------
CSTART
  Relative segment, address: CODE 0000008B - 0000009A (0x10 bytes), align: 0
  Segment part 16.
           ENTRY                   ADDRESS         REF BY
           =====                   =======         ======
           __INIT_XDATA_Z          0000008B        MRFI_Transmit::ccaRetries (mrfi)
                                                   activeModeCnt (main_manyEDs_autoack)
                                                   cnt (main_manyEDs_autoack)
                                                   delay (main_manyEDs_autoack)
                                                   linkTo{4}{5}{7}::cnt (main_manyEDs_autoack)
                                                   linkTo{4}{5}{9}::retry (main_manyEDs_autoack)
                                                   mrfiDmaCfg (mrfi)
                                                   mrfiIncomingPacket (mrfi)
                                                   mrfiRadioState (mrfi)
                                                   mrfiRxFilterEnabled (mrfi)
                                                   pwmLut_idx00 (main_manyEDs_autoack)
                                                   sAPAddr (nwk_mgmt)
                                                   sAPAddress (nwk_globals)
                                                   sBackoffHelper (mrfi)
                                                   sInFrameQ (nwk_QMgmt)
                                                   sInit_done (nwk_api)
                                                   sJoinToken (nwk_join)
                                                   sKillSem (mrfi)
                                                   sLinkID1 (main_manyEDs_autoack)
                                                   sLinkToken (nwk_link)
                                                   sListenActive (nwk_link)
                                                   sMyAddr (nwk_frame)
                                                   sMyRAMAddress (nwk_globals)
                                                   sMyRxType (nwk_frame)
                                                   sMyTxType (nwk_frame)
                                                   sNumLinkers (nwk_link)
                                                   sOutFrameQ (nwk_QMgmt)
                                                   sRAMAddressIsSet (nwk_globals)
                                                   sReplyDelayContext (mrfi)
                                                   sReplyDelayScalar (mrfi)
                                                   sServiceLinkID (nwk_link)
                                                   sTRACTID (nwk_frame)
                                                   sTid (nwk_join)
                                                   sTid (nwk_link)
                                                   sTid (nwk_mgmt)
                                                   sTid (nwk_ping)
                                                   spCallback (nwk_join)
    -------------------------------------------------------------------------
CSTART
  Relative segment, address: CODE 0000009B - 000000C0 (0x26 bytes), align: 0
  Segment part 33.
           ENTRY                   ADDRESS         REF BY
           =====                   =======         ======
           __INIT_XDATA_I          0000009B        PM2_BUF (main_manyEDs_autoack)
                                                   Segment part 27 (main_manyEDs_autoack)
                                                   __Constant_6 (mrfi)
                                                   __Constant_ffffffff (debugging)
                                                   dmaDesc (main_manyEDs_autoack)
                                                   func (nwk_frame)
                                                   mrfiBroadcastAddr (mrfi)
                                                   mrfiLogicalChanTable (mrfi)
                                                   mrfiRFPowerTable (mrfi)
                                                   mrfiRxFilterAddr (mrfi)
                                                   pwmLut (main_manyEDs_autoack)
                                                   pwmLut_idx01 (main_manyEDs_autoack)
                                                   pwmLut_idx02 (main_manyEDs_autoack)
                                                   pwmLut_idx03 (main_manyEDs_autoack)
                                                   pwmLut_idx04 (main_manyEDs_autoack)
                                                   pwmLut_idx05 (main_manyEDs_autoack)
                                                   pwmLut_idx06 (main_manyEDs_autoack)
                                                   pwmLut_idx07 (main_manyEDs_autoack)
                                                   pwmLut_idx10 (main_manyEDs_autoack)
                                                   pwmLut_idx11 (main_manyEDs_autoack)
                                                   pwmLut_idx12 (main_manyEDs_autoack)
                                                   pwmLut_idx13 (main_manyEDs_autoack)
                                                   pwmLut_idx14 (main_manyEDs_autoack)
                                                   pwmLut_idx15 (main_manyEDs_autoack)
                                                   pwmLut_idx16 (main_manyEDs_autoack)
                                                   pwmLut_idx17 (main_manyEDs_autoack)
                                                   sMyROMAddress (nwk_globals)
                                                   sPersistInfo (nwk)
                                                   sVersionInfo (nwk_globals)
    -------------------------------------------------------------------------
CSTART
  Relative segment, address: CODE 000000C1 - 000000C6 (0x6 bytes), align: 0
  Segment part 38.            Intra module refs:   ?cmain
           ENTRY                   ADDRESS         REF BY
           =====                   =======         ======
           ?call_main              000000C1 

    -------------------------------------------------------------------------
  LIBRARY MODULE, NAME : CSTARTUP

  SEGMENTS IN THE MODULE
  ======================
REGISTERS
  Relative segment, address: DATA 00000000, align: 0
  Segment part 0.             Intra module refs:   Segment part 6
           ENTRY                   ADDRESS         REF BY
           =====                   =======         ======
           ?REGISTERS              00000000 
    -------------------------------------------------------------------------
ISTACK
  Relative segment, address: IDATA 00000040, align: 0
  Segment part 1.             Intra module refs:   Segment part 6
           ENTRY                   ADDRESS         REF BY
           =====                   =======         ======
           ?ISTACK_START           00000040 
    -------------------------------------------------------------------------
XSTACK
  Relative segment, address: XDATA 0000F000, align: 0
  Segment part 3.             Intra module refs:   ?RESET_XSP
           ENTRY                   ADDRESS         REF BY
           =====                   =======         ======
           ?XSTACK_START           0000F000 
    -------------------------------------------------------------------------
INTVEC
  Common segment, address: CODE 00000000 - 00000002 (0x3 bytes), align: 0
  Segment part 5. ROOT        Intra module refs:   Segment part 6
    -------------------------------------------------------------------------
CSTART
  Relative segment, address: CODE 000000C7 - 000000CC (0x6 bytes), align: 0
  Segment part 6. ROOT        Intra module refs:   Segment part 5
           ENTRY                   ADDRESS         REF BY
           =====                   =======         ======
           __program_start         000000C7        Absolute parts (?ABS_ENTRY_MOD)
           ?RESET_SP               000000CA 
    -------------------------------------------------------------------------
CSTART
  Relative segment, address: CODE 000000CD - 000000D2 (0x6 bytes), align: 0
  Segment part 8.
           ENTRY                   ADDRESS         REF BY
           =====                   =======         ======
           ?RESET_XSP              000000CD        ?XSP (VIRTUAL_REGISTERS)
    -------------------------------------------------------------------------
CSTART
  Relative segment, address: CODE 000000D3 - 000000D5 (0x3 bytes), align: 0
  Segment part 13.            Intra module refs:   Absolute parts

    -------------------------------------------------------------------------
  LIBRARY MODULE, NAME : VIRTUAL_REGISTERS

  SEGMENTS IN THE MODULE
  ======================
BREG
  Relative segment, address: BIT 00000020.0 - 00000020.7 (0x8 bits), align: 0
  Segment part 0.
           ENTRY                   ADDRESS         REF BY
           =====                   =======         ======
           ?B0                     00000020.0      Absolute parts (CSTARTUP)
    -------------------------------------------------------------------------
VREG
  Relative segment, address: DATA 00000008 - 00000008 (0x1 bytes), align: 0
  Segment part 1.             Intra module refs:   ?V1
           ENTRY                   ADDRESS         REF BY
           =====                   =======         ======
           ?V0                     00000008        ?FUNC_ENTER_XDATA (?FUNC_ENTER_XDATA)
                                                   ?FUNC_LEAVE_XDATA (?FUNC_LEAVE_XDATA)
                                                   ?INTERRUPT_ENTER_XSP (?INTERRUPT_ENTER_XSP)
                                                   ?INTERRUPT_LEAVE_XSP (?INTERRUPT_LEAVE_XSP)
                                                   ?Subroutine3 (nwk_frame)
                                                   ?Subroutine3 (nwk_link)
                                                   MRFI_Init (mrfi)
                                                   MRFI_ReplyDelay (mrfi)
                                                   MRFI_RfIsr (mrfi)
                                                   MRFI_RxCompleteISR (nwk_frame)
                                                   MRFI_Transmit (mrfi)
                                                   Mrfi_CalculateRssi (mrfi)
                                                   Mrfi_DelayUsec (mrfi)
                                                   Mrfi_DelayUsecLong (mrfi)
                                                   Mrfi_RxModeOn (mrfi)
                                                   SMPL_Init (nwk_api)
                                                   SMPL_Ioctl (nwk_api)
                                                   SMPL_Receive (nwk_api)
                                                   Segment part 7 (?memmove)
                                                   dispatchFrame (nwk_frame)
                                                   handleLinkRequest (nwk_link)
                                                   memcpy (?memcpy)
                                                   memmove (?memmove)
                                                   nwk_QInit (nwk_QMgmt)
                                                   nwk_QfindOldest (nwk_QMgmt)
                                                   nwk_QfindSlot (nwk_QMgmt)
                                                   nwk_allocateLocalRxPort (nwk)
                                                   nwk_buildFrame (nwk_frame)
                                                   nwk_connectionControl (nwk_ioctl)
                                                   nwk_deviceAddress (nwk_ioctl)
                                                   nwk_findPeer (nwk)
                                                   nwk_getAPAddress (nwk_globals)
                                                   nwk_getNumObjectFromMsg (nwk)
                                                   nwk_globalsInit (nwk_globals)
                                                   nwk_isConnectionValid (nwk)
                                                   nwk_isLinkDuplicate (nwk)
                                                   nwk_isValidReply (nwk)
                                                   nwk_join (nwk_join)
                                                   nwk_link (nwk_link)
                                                   nwk_linkInit (nwk_link)
                                                   nwk_nwkInit (nwk)
                                                   nwk_poll (nwk_mgmt)
                                                   nwk_processMgmt (nwk_mgmt)
                                                   nwk_processPing (nwk_ping)
                                                   nwk_putNumObjectIntoMsg (nwk)
                                                   nwk_radioControl (nwk_ioctl)
                                                   nwk_rawReceive (nwk_ioctl)
                                                   nwk_rawSend (nwk_ioctl)
                                                   nwk_retrieveFrame (nwk_frame)
                                                   nwk_sendAckReply (nwk_frame)
                                                   nwk_sendFrame (nwk_frame)
                                                   nwk_setAPAddress (nwk_globals)
                                                   nwk_setJoinToken (nwk_join)
                                                   nwk_setLinkToken (nwk_link)
                                                   nwk_setMyAddress (nwk_globals)
                                                   smpl_send_link_reply (nwk_link)
    -------------------------------------------------------------------------
VREG
  Relative segment, address: DATA 00000009 - 00000009 (0x1 bytes), align: 0
  Segment part 2.             Intra module refs:   ?V2
           ENTRY                   ADDRESS         REF BY
           =====                   =======         ======
           ?V1                     00000009        ?Subroutine3 (nwk_frame)
                                                   ?Subroutine3 (nwk_link)
                                                   ?Subroutine5 (nwk_link)
                                                   MRFI_Init (mrfi)
                                                   MRFI_ReplyDelay (mrfi)
                                                   MRFI_RfIsr (mrfi)
                                                   MRFI_RxCompleteISR (nwk_frame)
                                                   MRFI_Transmit (mrfi)
                                                   Mrfi_CalculateRssi (mrfi)
                                                   Mrfi_DelayUsec (mrfi)
                                                   Mrfi_DelayUsecLong (mrfi)
                                                   Mrfi_RxModeOn (mrfi)
                                                   SMPL_Init (nwk_api)
                                                   SMPL_Ioctl (nwk_api)
                                                   SMPL_Receive (nwk_api)
                                                   Segment part 7 (?memmove)
                                                   handleLinkRequest (nwk_link)
                                                   memcpy (?memcpy)
                                                   memmove (?memmove)
                                                   nwk_QInit (nwk_QMgmt)
                                                   nwk_QfindOldest (nwk_QMgmt)
                                                   nwk_QfindSlot (nwk_QMgmt)
                                                   nwk_allocateLocalRxPort (nwk)
                                                   nwk_buildFrame (nwk_frame)
                                                   nwk_connectionControl (nwk_ioctl)
                                                   nwk_deviceAddress (nwk_ioctl)
                                                   nwk_findPeer (nwk)
                                                   nwk_getAPAddress (nwk_globals)
                                                   nwk_globalsInit (nwk_globals)
                                                   nwk_isConnectionValid (nwk)
                                                   nwk_isLinkDuplicate (nwk)
                                                   nwk_isValidReply (nwk)
                                                   nwk_join (nwk_join)
                                                   nwk_link (nwk_link)
                                                   nwk_linkInit (nwk_link)
                                                   nwk_nwkInit (nwk)
                                                   nwk_poll (nwk_mgmt)
                                                   nwk_processMgmt (nwk_mgmt)
                                                   nwk_processPing (nwk_ping)
                                                   nwk_putNumObjectIntoMsg (nwk)
                                                   nwk_radioControl (nwk_ioctl)
                                                   nwk_rawReceive (nwk_ioctl)
                                                   nwk_rawSend (nwk_ioctl)
                                                   nwk_retrieveFrame (nwk_frame)
                                                   nwk_sendAckReply (nwk_frame)
                                                   nwk_setAPAddress (nwk_globals)
                                                   nwk_setJoinToken (nwk_join)
                                                   nwk_setLinkToken (nwk_link)
                                                   nwk_setMyAddress (nwk_globals)
                                                   smpl_send_link_reply (nwk_link)
    -------------------------------------------------------------------------
VREG
  Relative segment, address: DATA 0000000A - 0000000A (0x1 bytes), align: 0
  Segment part 3.             Intra module refs:   ?V3
           ENTRY                   ADDRESS         REF BY
           =====                   =======         ======
           ?V2                     0000000A        MRFI_ReplyDelay (mrfi)
                                                   MRFI_Transmit (mrfi)
                                                   Mrfi_DelayUsecLong (mrfi)
                                                   SMPL_Ioctl (nwk_api)
                                                   SMPL_Receive (nwk_api)
                                                   dispatchFrame (nwk_frame)
                                                   handleLinkRequest (nwk_link)
                                                   nwk_QfindOldest (nwk_QMgmt)
                                                   nwk_QfindSlot (nwk_QMgmt)
                                                   nwk_allocateLocalRxPort (nwk)
                                                   nwk_buildFrame (nwk_frame)
                                                   nwk_deviceAddress (nwk_ioctl)
                                                   nwk_findPeer (nwk)
                                                   nwk_getNumObjectFromMsg (nwk)
                                                   nwk_isConnectionValid (nwk)
                                                   nwk_isLinkDuplicate (nwk)
                                                   nwk_isValidReply (nwk)
                                                   nwk_link (nwk_link)
                                                   nwk_processPing (nwk_ping)
                                                   nwk_putNumObjectIntoMsg (nwk)
                                                   nwk_radioControl (nwk_ioctl)
                                                   nwk_rawSend (nwk_ioctl)
                                                   nwk_retrieveFrame (nwk_frame)
                                                   nwk_setJoinToken (nwk_join)
                                                   nwk_setLinkToken (nwk_link)
                                                   smpl_send_link_reply (nwk_link)
    -------------------------------------------------------------------------
VREG
  Relative segment, address: DATA 0000000B - 0000000B (0x1 bytes), align: 0
  Segment part 4.             Intra module refs:   ?V4
           ENTRY                   ADDRESS         REF BY
           =====                   =======         ======
           ?V3                     0000000B        MRFI_Transmit (mrfi)
                                                   Mrfi_DelayUsecLong (mrfi)
                                                   SMPL_Receive (nwk_api)
                                                   dispatchFrame (nwk_frame)
                                                   handleLinkRequest (nwk_link)
                                                   nwk_QfindOldest (nwk_QMgmt)
                                                   nwk_allocateLocalRxPort (nwk)
                                                   nwk_buildFrame (nwk_frame)
                                                   nwk_deviceAddress (nwk_ioctl)
                                                   nwk_findPeer (nwk)
                                                   nwk_getNumObjectFromMsg (nwk)
                                                   nwk_isConnectionValid (nwk)
                                                   nwk_isLinkDuplicate (nwk)
                                                   nwk_isValidReply (nwk)
                                                   nwk_link (nwk_link)
                                                   nwk_processPing (nwk_ping)
                                                   nwk_putNumObjectIntoMsg (nwk)
                                                   nwk_radioControl (nwk_ioctl)
                                                   nwk_rawSend (nwk_ioctl)
                                                   nwk_retrieveFrame (nwk_frame)
                                                   nwk_setJoinToken (nwk_join)
                                                   nwk_setLinkToken (nwk_link)
                                                   smpl_send_link_reply (nwk_link)
    -------------------------------------------------------------------------
VREG
  Relative segment, address: DATA 0000000C - 0000000C (0x1 bytes), align: 0
  Segment part 5.             Intra module refs:   ?V5
           ENTRY                   ADDRESS         REF BY
           =====                   =======         ======
           ?V4                     0000000C        Mrfi_DelayUsecLong (mrfi)
                                                   SMPL_Ioctl (nwk_api)
                                                   SMPL_Receive (nwk_api)
                                                   dispatchFrame (nwk_frame)
                                                   handleLinkRequest (nwk_link)
                                                   nwk_QfindOldest (nwk_QMgmt)
                                                   nwk_allocateLocalRxPort (nwk)
                                                   nwk_buildFrame (nwk_frame)
                                                   nwk_findPeer (nwk)
                                                   nwk_isConnectionValid (nwk)
                                                   nwk_isLinkDuplicate (nwk)
                                                   nwk_isValidReply (nwk)
                                                   nwk_retrieveFrame (nwk_frame)
                                                   smpl_send_link_reply (nwk_link)
    -------------------------------------------------------------------------
VREG
  Relative segment, address: DATA 0000000D - 0000000D (0x1 bytes), align: 0
  Segment part 6.             Intra module refs:   ?V6
           ENTRY                   ADDRESS         REF BY
           =====                   =======         ======
           ?V5                     0000000D        Mrfi_DelayUsecLong (mrfi)
                                                   SMPL_Ioctl (nwk_api)
                                                   SMPL_Receive (nwk_api)
                                                   dispatchFrame (nwk_frame)
                                                   handleLinkRequest (nwk_link)
                                                   nwk_QfindOldest (nwk_QMgmt)
                                                   nwk_findPeer (nwk)
                                                   nwk_isConnectionValid (nwk)
                                                   nwk_isLinkDuplicate (nwk)
                                                   nwk_retrieveFrame (nwk_frame)
                                                   smpl_send_link_reply (nwk_link)
    -------------------------------------------------------------------------
VREG
  Relative segment, address: DATA 0000000E - 0000000E (0x1 bytes), align: 0
  Segment part 7.             Intra module refs:   ?V7
           ENTRY                   ADDRESS         REF BY
           =====                   =======         ======
           ?V6                     0000000E        ?Subroutine4 (nwk_link)
                                                   Mrfi_DelayUsecLong (mrfi)
                                                   SMPL_Receive (nwk_api)
                                                   nwk_QfindOldest (nwk_QMgmt)
                                                   nwk_allocateLocalRxPort (nwk)
                                                   nwk_buildFrame (nwk_frame)
                                                   nwk_isConnectionValid (nwk)
                                                   nwk_retrieveFrame (nwk_frame)
                                                   smpl_send_link_reply (nwk_link)
    -------------------------------------------------------------------------
VREG
  Relative segment, address: DATA 0000000F - 0000000F (0x1 bytes), align: 0
  Segment part 8.
           ENTRY                   ADDRESS         REF BY
           =====                   =======         ======
           ?V7                     0000000F        ?Subroutine4 (nwk_link)
                                                   SMPL_Receive (nwk_api)
                                                   nwk_QfindOldest (nwk_QMgmt)
                                                   nwk_allocateLocalRxPort (nwk)
                                                   nwk_buildFrame (nwk_frame)
                                                   nwk_isConnectionValid (nwk)
                                                   nwk_retrieveFrame (nwk_frame)
                                                   smpl_send_link_reply (nwk_link)
    -------------------------------------------------------------------------
XSP
  Relative segment, address: DATA 00000010 - 00000011 (0x2 bytes), align: 0
  Segment part 34.
           ENTRY                   ADDRESS         REF BY
           =====                   =======         ======
           ?XSP                    00000010        ?ADD_XSTACK_DISP0_8 (?ADD_XSTACK_DISP8)
                                                   ?ALLOC_XSTACK8 (?ALLOC_XSTACK8)
                                                   ?DEALLOC_XSTACK8 (?DEALLOC_XSTACK8)
                                                   ?FUNC_ENTER_XDATA (?FUNC_ENTER_XDATA)
                                                   ?FUNC_LEAVE_XDATA (?FUNC_LEAVE_XDATA)
                                                   ?INTERRUPT_ENTER_XSP (?INTERRUPT_ENTER_XSP)
                                                   ?INTERRUPT_LEAVE_XSP (?INTERRUPT_LEAVE_XSP)
                                                   ?PUSH_XSTACK8_X (?PUSH_XSTACK8_X)
                                                   ?RESET_XSP (CSTARTUP)
                                                   ?Subroutine1 (main_manyEDs_autoack)
                                                   ?Subroutine2 (nwk_link)
                                                   ?Subroutine4 (nwk_link)
                                                   ?XSTACK_DISP0_8 (?XSTACK_DISP8)
                                                   ?XSTACK_DISP100_8 (?XSTACK_DISP8_RP)
                                                   ?XSTACK_DISP101_8 (?XSTACK_DISP8_RP)
                                                   ?XSTACK_DISP102_8 (?XSTACK_DISP8_RP)
                                                   BSP_Init (bsp)
                                                   EnterPM2 (main_manyEDs_autoack)
                                                   SMPL_Receive (nwk_api)
                                                   dispatchFrame (nwk_frame)
                                                   handleLinkRequest (nwk_link)
                                                   linkTo (main_manyEDs_autoack)
                                                   memset (?memset)
                                                   nwk_QfindOldest (nwk_QMgmt)
                                                   nwk_allocateLocalRxPort (nwk)
                                                   nwk_getConnInfo (nwk)
                                                   nwk_getNextConnection (nwk)
                                                   nwk_join (nwk_join)
                                                   nwk_link (nwk_link)
                                                   nwk_poll (nwk_mgmt)
                                                   nwk_putNumObjectIntoMsg (nwk)
                                                   nwk_rawReceive (nwk_ioctl)
                                                   nwk_sendAckReply (nwk_frame)

    -------------------------------------------------------------------------
  LIBRARY MODULE, NAME : ?L_EQ_X

  SEGMENTS IN THE MODULE
  ======================
RCODE
  Relative segment, address: CODE 00000180 - 00000194 (0x15 bytes), align: 0
  Segment part 1.
           ENTRY                   ADDRESS         REF BY
           =====                   =======         ======
           ?L_EQ_X                 00000180        smpl_send_link_reply (nwk_link)

    -------------------------------------------------------------------------
  LIBRARY MODULE, NAME : ?L_ADD_X

  SEGMENTS IN THE MODULE
  ======================
RCODE
  Relative segment, address: CODE 00000195 - 000001A7 (0x13 bytes), align: 0
  Segment part 1.
           ENTRY                   ADDRESS         REF BY
           =====                   =======         ======
           ?L_ADD_X                00000195        Mrfi_DelayUsecLong (mrfi)

    -------------------------------------------------------------------------
  LIBRARY MODULE, NAME : ?L_MOV_X

  SEGMENTS IN THE MODULE
  ======================
RCODE
  Relative segment, address: CODE 000001A8 - 000001B6 (0xf bytes), align: 0
  Segment part 0.
           ENTRY                   ADDRESS         REF BY
           =====                   =======         ======
           ?L_MOV_X                000001A8        smpl_send_link_reply (nwk_link)

    -------------------------------------------------------------------------
  LIBRARY MODULE, NAME : ?L_MOV_TO_X

  SEGMENTS IN THE MODULE
  ======================
RCODE
  Relative segment, address: CODE 000001B7 - 000001C5 (0xf bytes), align: 0
  Segment part 2.
           ENTRY                   ADDRESS         REF BY
           =====                   =======         ======
           ?L_MOV_TO_X             000001B7        nwk_setJoinToken (nwk_join)
                                                   nwk_setLinkToken (nwk_link)

    -------------------------------------------------------------------------
  LIBRARY MODULE, NAME : ?XLOAD_R2345

  SEGMENTS IN THE MODULE
  ======================
RCODE
  Relative segment, address: CODE 000001C6 - 000001D1 (0xc bytes), align: 0
  Segment part 0.
           ENTRY                   ADDRESS         REF BY
           =====                   =======         ======
           ?XLOAD_R2345            000001C6        MRFI_Transmit (mrfi)
                                                   SMPL_Ioctl (nwk_api)
                                                   nwk_join (nwk_join)

    -------------------------------------------------------------------------
  LIBRARY MODULE, NAME : ?XLOAD_R4567

  SEGMENTS IN THE MODULE
  ======================
RCODE
  Relative segment, address: CODE 000001D2 - 000001DD (0xc bytes), align: 0
  Segment part 0.
           ENTRY                   ADDRESS         REF BY
           =====                   =======         ======
           ?XLOAD_R4567            000001D2        nwk_getJoinToken (nwk_join)
                                                   nwk_getLinkToken (nwk_link)
                                                   nwk_joinInit (nwk_join)

    -------------------------------------------------------------------------
  LIBRARY MODULE, NAME : ?XSTORE_R4567

  SEGMENTS IN THE MODULE
  ======================
RCODE
  Relative segment, address: CODE 000001DE - 000001E9 (0xc bytes), align: 0
  Segment part 0.
           ENTRY                   ADDRESS         REF BY
           =====                   =======         ======
           ?XSTORE_R4567           000001DE        nwk_getJoinToken (nwk_join)
                                                   nwk_getLinkToken (nwk_link)

    -------------------------------------------------------------------------
  LIBRARY MODULE, NAME : ?XLOAD_R0123

  SEGMENTS IN THE MODULE
  ======================
RCODE
  Relative segment, address: CODE 000001EA - 000001F5 (0xc bytes), align: 0
  Segment part 0.
           ENTRY                   ADDRESS         REF BY
           =====                   =======         ======
           ?XLOAD_R0123            000001EA        nwk_getNumObjectFromMsg (nwk)
                                                   nwk_linkInit (nwk_link)
                                                   nwk_putNumObjectIntoMsg (nwk)

    -------------------------------------------------------------------------
  LIBRARY MODULE, NAME : ?XSTORE_R0123

  SEGMENTS IN THE MODULE
  ======================
RCODE
  Relative segment, address: CODE 000001F6 - 00000201 (0xc bytes), align: 0
  Segment part 0.
           ENTRY                   ADDRESS         REF BY
           =====                   =======         ======
           ?XSTORE_R0123           000001F6        nwk_getNumObjectFromMsg (nwk)
                                                   nwk_putNumObjectIntoMsg (nwk)

    -------------------------------------------------------------------------
  LIBRARY MODULE, NAME : ?MOVE_LONG8_XDATA_IDATA

  SEGMENTS IN THE MODULE
  ======================
RCODE
  Relative segment, address: CODE 00000202 - 0000020E (0xd bytes), align: 0
  Segment part 0.
           ENTRY                   ADDRESS         REF BY
           =====                   =======         ======
           ?MOVE_LONG8_XDATA_IDATA
                                   00000202        ?PUSH_XSTACK_I (?PUSH_XSTACK_I)

    -------------------------------------------------------------------------
  LIBRARY MODULE, NAME : ?MOVE_LONG8_XDATA_XDATA

  SEGMENTS IN THE MODULE
  ======================
RCODE
  Relative segment, address: CODE 0000020F - 0000022F (0x21 bytes), align: 0
  Segment part 0.
           ENTRY                   ADDRESS         REF BY
           =====                   =======         ======
           ?MOVE_LONG8_XDATA_XDATA
                                   0000020F        ?PUSH_XSTACK8_X (?PUSH_XSTACK8_X)
                                                   MRFI_Receive (mrfi)
                                                   linkTo (main_manyEDs_autoack)

    -------------------------------------------------------------------------
  LIBRARY MODULE, NAME : ?S_DIV_MOD

  SEGMENTS IN THE MODULE
  ======================
RCODE
  Relative segment, address: CODE 00000230 - 00000270 (0x41 bytes), align: 0
  Segment part 0.
           ENTRY                   ADDRESS         REF BY
           =====                   =======         ======
           ?S_DIV_MOD              00000269        Mrfi_CalculateRssi (mrfi)
    -------------------------------------------------------------------------
RCODE
  Relative segment, address: CODE 00000271 - 000002C9 (0x59 bytes), align: 0
  Segment part 1.             Intra module refs:   ?S_DIV_MOD
           ENTRY                   ADDRESS         REF BY
           =====                   =======         ======
           ?US_DIV_MOD             00000271 

    -------------------------------------------------------------------------
  LIBRARY MODULE, NAME : ?US_SHR

  SEGMENTS IN THE MODULE
  ======================
RCODE
  Relative segment, address: CODE 000002CA - 000002CC (0x3 bytes), align: 0
  Segment part 1.             Intra module refs:   Segment part 2
           ENTRY                   ADDRESS         REF BY
           =====                   =======         ======
           ?US_SHR                 000002CA        Mrfi_DelayUsec (mrfi)
                                                   Mrfi_DelayUsecLong (mrfi)
    -------------------------------------------------------------------------
RCODE
  Relative segment, address: CODE 000002CD - 000002D8 (0xc bytes), align: 0
  Segment part 2.             Intra module refs:   ?US_SHR

    -------------------------------------------------------------------------
  LIBRARY MODULE, NAME : ?ALLOC_XSTACK8

  SEGMENTS IN THE MODULE
  ======================
RCODE
  Relative segment, address: CODE 000002D9 - 000002EE (0x16 bytes), align: 0
  Segment part 0.
           ENTRY                   ADDRESS         REF BY
           =====                   =======         ======
           ?ALLOC_XSTACK8          000002D9        BSP_Init (bsp)
                                                   EnterPM2 (main_manyEDs_autoack)
                                                   SMPL_Receive (nwk_api)
                                                   dispatchFrame (nwk_frame)
                                                   handleLinkRequest (nwk_link)
                                                   linkTo (main_manyEDs_autoack)
                                                   nwk_QfindOldest (nwk_QMgmt)
                                                   nwk_allocateLocalRxPort (nwk)
                                                   nwk_getAPAddress (nwk_globals)
                                                   nwk_getConnInfo (nwk)
                                                   nwk_getNextConnection (nwk)
                                                   nwk_join (nwk_join)
                                                   nwk_link (nwk_link)
                                                   nwk_poll (nwk_mgmt)
                                                   nwk_putNumObjectIntoMsg (nwk)
                                                   nwk_rawReceive (nwk_ioctl)
                                                   nwk_sendAckReply (nwk_frame)
                                                   smpl_send_link_reply (nwk_link)

    -------------------------------------------------------------------------
  LIBRARY MODULE, NAME : ?DEALLOC_XSTACK8

  SEGMENTS IN THE MODULE
  ======================
RCODE
  Relative segment, address: CODE 000002EF - 00000309 (0x1b bytes), align: 0
  Segment part 0.
           ENTRY                   ADDRESS         REF BY
           =====                   =======         ======
           ?DEALLOC_XSTACK8        000002EF        ?Subroutine0 (nwk)
                                                   ?Subroutine0 (nwk_globals)
                                                   ?Subroutine0 (nwk_link)
                                                   BSP_Init (bsp)
                                                   EnterPM2 (main_manyEDs_autoack)
                                                   MRFI_Init (mrfi)
                                                   MRFI_RfIsr (mrfi)
                                                   MRFI_Transmit (mrfi)
                                                   Mrfi_RxModeOn (mrfi)
                                                   SMPL_Ioctl (nwk_api)
                                                   SMPL_Receive (nwk_api)
                                                   dispatchFrame (nwk_frame)
                                                   handleLinkRequest (nwk_link)
                                                   nwk_QInit (nwk_QMgmt)
                                                   nwk_QfindOldest (nwk_QMgmt)
                                                   nwk_allocateLocalRxPort (nwk)
                                                   nwk_buildFrame (nwk_frame)
                                                   nwk_deviceAddress (nwk_ioctl)
                                                   nwk_findPeer (nwk)
                                                   nwk_getAPAddress (nwk_globals)
                                                   nwk_getNumObjectFromMsg (nwk)
                                                   nwk_globalsInit (nwk_globals)
                                                   nwk_isConnectionValid (nwk)
                                                   nwk_isLinkDuplicate (nwk)
                                                   nwk_isValidReply (nwk)
                                                   nwk_join (nwk_join)
                                                   nwk_link (nwk_link)
                                                   nwk_linkInit (nwk_link)
                                                   nwk_nwkInit (nwk)
                                                   nwk_poll (nwk_mgmt)
                                                   nwk_processMgmt (nwk_mgmt)
                                                   nwk_processPing (nwk_ping)
                                                   nwk_putNumObjectIntoMsg (nwk)
                                                   nwk_radioControl (nwk_ioctl)
                                                   nwk_rawReceive (nwk_ioctl)
                                                   nwk_rawSend (nwk_ioctl)
                                                   nwk_retrieveFrame (nwk_frame)
                                                   nwk_sendAckReply (nwk_frame)
                                                   nwk_setMyAddress (nwk_globals)
                                                   smpl_send_link_reply (nwk_link)

    -------------------------------------------------------------------------
  LIBRARY MODULE, NAME : ?ADD_XSTACK_DISP8

  SEGMENTS IN THE MODULE
  ======================
RCODE
  Relative segment, address: CODE 0000030A - 00000324 (0x1b bytes), align: 0
  Segment part 1.
           ENTRY                   ADDRESS         REF BY
           =====                   =======         ======
           ?ADD_XSTACK_DISP0_8     0000030A        ?PUSH_XSTACK_I (?PUSH_XSTACK_I)

    -------------------------------------------------------------------------
  LIBRARY MODULE, NAME : ?XSTACK_DISP8

  SEGMENTS IN THE MODULE
  ======================
RCODE
  Relative segment, address: CODE 00000325 - 0000032E (0xa bytes), align: 0
  Segment part 1.
           ENTRY                   ADDRESS         REF BY
           =====                   =======         ======
           ?XSTACK_DISP0_8         00000325        EnterPM2 (main_manyEDs_autoack)
                                                   Mrfi_DelayUsecLong (mrfi)
                                                   SMPL_Receive (nwk_api)
                                                   handleLinkRequest (nwk_link)
                                                   linkTo (main_manyEDs_autoack)
                                                   memcmp (?memcmp)
                                                   memcpy (?memcpy)
                                                   memmove (?memmove)
                                                   nwk_QfindOldest (nwk_QMgmt)
                                                   nwk_allocateLocalRxPort (nwk)
                                                   nwk_join (nwk_join)
                                                   nwk_link (nwk_link)
                                                   nwk_poll (nwk_mgmt)
                                                   nwk_putNumObjectIntoMsg (nwk)
                                                   nwk_rawReceive (nwk_ioctl)
                                                   nwk_retrieveFrame (nwk_frame)
                                                   nwk_sendAckReply (nwk_frame)
                                                   smpl_send_link_reply (nwk_link)

    -------------------------------------------------------------------------
  LIBRARY MODULE, NAME : ?XSTACK_DISP8_RP

  SEGMENTS IN THE MODULE
  ======================
RCODE
  Relative segment, address: CODE 0000032F - 00000336 (0x8 bytes), align: 0
  Segment part 0.
           ENTRY                   ADDRESS         REF BY
           =====                   =======         ======
           ?XSTACK_DISP100_8       0000032F        nwk_join (nwk_join)
                                                   nwk_link (nwk_link)
                                                   nwk_poll (nwk_mgmt)
                                                   nwk_putNumObjectIntoMsg (nwk)
    -------------------------------------------------------------------------
RCODE
  Relative segment, address: CODE 00000337 - 0000033E (0x8 bytes), align: 0
  Segment part 1.
           ENTRY                   ADDRESS         REF BY
           =====                   =======         ======
           ?XSTACK_DISP101_8       00000337        SMPL_Receive (nwk_api)
                                                   nwk_allocateLocalRxPort (nwk)
                                                   nwk_getAPAddress (nwk_globals)
                                                   nwk_join (nwk_join)
                                                   nwk_link (nwk_link)
                                                   nwk_rawReceive (nwk_ioctl)
    -------------------------------------------------------------------------
RCODE
  Relative segment, address: CODE 0000033F - 00000346 (0x8 bytes), align: 0
  Segment part 2.
           ENTRY                   ADDRESS         REF BY
           =====                   =======         ======
           ?XSTACK_DISP102_8       0000033F        linkTo (main_manyEDs_autoack)
                                                   smpl_send_link_reply (nwk_link)

    -------------------------------------------------------------------------
  LIBRARY MODULE, NAME : ?CALL_IND

  SEGMENTS IN THE MODULE
  ======================
RCODE
  Relative segment, address: CODE 00000347 - 00000348 (0x2 bytes), align: 0
  Segment part 0.
           ENTRY                   ADDRESS         REF BY
           =====                   =======         ======
           ?CALL_IND               00000347        Mrfi_DelayUsecLong (mrfi)
                                                   dispatchFrame (nwk_frame)

    -------------------------------------------------------------------------
  LIBRARY MODULE, NAME : ?FUNC_ENTER_XDATA

  SEGMENTS IN THE MODULE
  ======================
RCODE
  Relative segment, address: CODE 00000349 - 000003AE (0x66 bytes), align: 0
  Segment part 1.
           ENTRY                   ADDRESS         REF BY
           =====                   =======         ======
           ?FUNC_ENTER_XDATA       00000349        EnterPM2 (main_manyEDs_autoack)
                                                   MRFI_DelayMs (mrfi)
                                                   MRFI_Init (mrfi)
                                                   MRFI_ReplyDelay (mrfi)
                                                   MRFI_Rssi (mrfi)
                                                   MRFI_RxAddrIsFiltered (mrfi)
                                                   MRFI_RxCompleteISR (nwk_frame)
                                                   MRFI_SetLogicalChannel (mrfi)
                                                   MRFI_SetRFPwr (mrfi)
                                                   MRFI_Sleep (mrfi)
                                                   MRFI_Transmit (mrfi)
                                                   Mrfi_DelayUsec (mrfi)
                                                   Mrfi_DelayUsecLong (mrfi)
                                                   Mrfi_RxModeOn (mrfi)
                                                   SMPL_Init (nwk_api)
                                                   SMPL_Ioctl (nwk_api)
                                                   SMPL_Receive (nwk_api)
                                                   dispatchFrame (nwk_frame)
                                                   handleLinkRequest (nwk_link)
                                                   map_lid2idx (nwk)
                                                   memcmp (?memcmp)
                                                   memcpy (?memcpy)
                                                   memmove (?memmove)
                                                   nwk_QInit (nwk_QMgmt)
                                                   nwk_QadjustOrder (nwk_QMgmt)
                                                   nwk_QfindOldest (nwk_QMgmt)
                                                   nwk_QfindSlot (nwk_QMgmt)
                                                   nwk_allocateLocalRxPort (nwk)
                                                   nwk_buildFrame (nwk_frame)
                                                   nwk_connectionControl (nwk_ioctl)
                                                   nwk_deviceAddress (nwk_ioctl)
                                                   nwk_findPeer (nwk)
                                                   nwk_getAPAddress (nwk_globals)
                                                   nwk_getConnInfo (nwk)
                                                   nwk_getJoinToken (nwk_join)
                                                   nwk_getLinkToken (nwk_link)
                                                   nwk_getNextConnection (nwk)
                                                   nwk_getNumObjectFromMsg (nwk)
                                                   nwk_globalsInit (nwk_globals)
                                                   nwk_isConnectionValid (nwk)
                                                   nwk_isLinkDuplicate (nwk)
                                                   nwk_isValidReply (nwk)
                                                   nwk_join (nwk_join)
                                                   nwk_joinInit (nwk_join)
                                                   nwk_link (nwk_link)
                                                   nwk_linkInit (nwk_link)
                                                   nwk_nwkInit (nwk)
                                                   nwk_poll (nwk_mgmt)
                                                   nwk_processJoin (nwk_join)
                                                   nwk_processLink (nwk_link)
                                                   nwk_processMgmt (nwk_mgmt)
                                                   nwk_processPing (nwk_ping)
                                                   nwk_putNumObjectIntoMsg (nwk)
                                                   nwk_radioControl (nwk_ioctl)
                                                   nwk_rawReceive (nwk_ioctl)
                                                   nwk_rawSend (nwk_ioctl)
                                                   nwk_retrieveFrame (nwk_frame)
                                                   nwk_sendAckReply (nwk_frame)
                                                   nwk_sendFrame (nwk_frame)
                                                   nwk_setAPAddress (nwk_globals)
                                                   nwk_setJoinToken (nwk_join)
                                                   nwk_setLinkToken (nwk_link)
                                                   nwk_setMyAddress (nwk_globals)
                                                   smpl_send_link_reply (nwk_link)

    -------------------------------------------------------------------------
  LIBRARY MODULE, NAME : ?FUNC_LEAVE_XDATA

  SEGMENTS IN THE MODULE
  ======================
RCODE
  Relative segment, address: CODE 000003AF - 000003EE (0x40 bytes), align: 0
  Segment part 1.
           ENTRY                   ADDRESS         REF BY
           =====                   =======         ======
           ?FUNC_LEAVE_XDATA       000003AF        ?Subroutine0 (mrfi)
                                                   ?Subroutine0 (nwk_api)
                                                   ?Subroutine0 (nwk_ioctl)
                                                   ?Subroutine0 (nwk_join)
                                                   ?Subroutine0 (nwk_mgmt)
                                                   ?Subroutine1 (nwk_api)
                                                   ?Subroutine1 (nwk_frame)
                                                   ?Subroutine1 (nwk_ioctl)
                                                   ?Subroutine1 (nwk_link)
                                                   ?Subroutine2 (mrfi)
                                                   ?Subroutine2 (nwk)
                                                   ?Subroutine2 (nwk_api)
                                                   ?Subroutine2 (nwk_frame)
                                                   ?Subroutine3 (nwk)
                                                   ?Subroutine4 (nwk)
                                                   EnterPM2 (main_manyEDs_autoack)
                                                   MRFI_ReplyDelay (mrfi)
                                                   MRFI_Transmit (mrfi)
                                                   Mrfi_DelayUsecLong (mrfi)
                                                   Segment part 11 (nwk)
                                                   Segment part 15 (nwk_globals)
                                                   Segment part 18 (nwk_link)
                                                   dispatchFrame (nwk_frame)
                                                   handleLinkRequest (nwk_link)
                                                   memcmp (?memcmp)
                                                   memcpy (?memcpy)
                                                   memmove (?memmove)
                                                   nwk_QInit (nwk_QMgmt)
                                                   nwk_QadjustOrder (nwk_QMgmt)
                                                   nwk_QfindOldest (nwk_QMgmt)
                                                   nwk_QfindSlot (nwk_QMgmt)
                                                   nwk_isValidReply (nwk)
                                                   nwk_join (nwk_join)
                                                   nwk_linkInit (nwk_link)
                                                   nwk_nwkInit (nwk)
                                                   nwk_processPing (nwk_ping)
                                                   nwk_sendFrame (nwk_frame)
                                                   nwk_setJoinToken (nwk_join)
                                                   smpl_send_link_reply (nwk_link)

    -------------------------------------------------------------------------
  LIBRARY MODULE, NAME : ?INTERRUPT_ENTER_XSP

  SEGMENTS IN THE MODULE
  ======================
RCODE
  Relative segment, address: CODE 000003EF - 0000044D (0x5f bytes), align: 0
  Segment part 1.
           ENTRY                   ADDRESS         REF BY
           =====                   =======         ======
           ?INTERRUPT_ENTER_XSP    000003EF        MRFI_RfIsr (mrfi)

    -------------------------------------------------------------------------
  LIBRARY MODULE, NAME : ?INTERRUPT_LEAVE_XSP

  SEGMENTS IN THE MODULE
  ======================
RCODE
  Relative segment, address: CODE 0000044E - 000004A5 (0x58 bytes), align: 0
  Segment part 1.
           ENTRY                   ADDRESS         REF BY
           =====                   =======         ======
           ?INTERRUPT_LEAVE_XSP    0000044E        MRFI_RfIsr (mrfi)

    -------------------------------------------------------------------------
  LIBRARY MODULE, NAME : ?PUSH_XSTACK_I

  SEGMENTS IN THE MODULE
  ======================
RCODE
  Relative segment, address: CODE 000004A6 - 000004A9 (0x4 bytes), align: 0
  Segment part 2.
           ENTRY                   ADDRESS         REF BY
           =====                   =======         ======
           ?PUSH_XSTACK_I_TWO      000004A6        MRFI_Init (mrfi)
                                                   MRFI_RfIsr (mrfi)
                                                   MRFI_Transmit (mrfi)
                                                   Mrfi_RxModeOn (mrfi)
                                                   SMPL_Ioctl (nwk_api)
                                                   SMPL_Receive (nwk_api)
                                                   dispatchFrame (nwk_frame)
                                                   handleLinkRequest (nwk_link)
                                                   nwk_QInit (nwk_QMgmt)
                                                   nwk_QfindOldest (nwk_QMgmt)
                                                   nwk_allocateLocalRxPort (nwk)
                                                   nwk_buildFrame (nwk_frame)
                                                   nwk_deviceAddress (nwk_ioctl)
                                                   nwk_findPeer (nwk)
                                                   nwk_getAPAddress (nwk_globals)
                                                   nwk_getNumObjectFromMsg (nwk)
                                                   nwk_globalsInit (nwk_globals)
                                                   nwk_isConnectionValid (nwk)
                                                   nwk_isLinkDuplicate (nwk)
                                                   nwk_isValidReply (nwk)
                                                   nwk_join (nwk_join)
                                                   nwk_link (nwk_link)
                                                   nwk_linkInit (nwk_link)
                                                   nwk_nwkInit (nwk)
                                                   nwk_poll (nwk_mgmt)
                                                   nwk_processMgmt (nwk_mgmt)
                                                   nwk_processPing (nwk_ping)
                                                   nwk_putNumObjectIntoMsg (nwk)
                                                   nwk_radioControl (nwk_ioctl)
                                                   nwk_rawReceive (nwk_ioctl)
                                                   nwk_rawSend (nwk_ioctl)
                                                   nwk_retrieveFrame (nwk_frame)
                                                   nwk_sendAckReply (nwk_frame)
                                                   nwk_setAPAddress (nwk_globals)
                                                   nwk_setMyAddress (nwk_globals)
                                                   smpl_send_link_reply (nwk_link)
    -------------------------------------------------------------------------
RCODE
  Relative segment, address: CODE 000004AA - 000004B6 (0xd bytes), align: 0
  Segment part 4.             Intra module refs:   ?PUSH_XSTACK_I_TWO
           ENTRY                   ADDRESS         REF BY
           =====                   =======         ======
           ?PUSH_XSTACK_I          000004AA 

    -------------------------------------------------------------------------
  LIBRARY MODULE, NAME : ?PUSH_XSTACK8_X

  SEGMENTS IN THE MODULE
  ======================
RCODE
  Relative segment, address: CODE 000004B7 - 000004BA (0x4 bytes), align: 0
  Segment part 3.
           ENTRY                   ADDRESS         REF BY
           =====                   =======         ======
           ?PUSH_XSTACK8_X_TWO     000004B7        nwk_rawReceive (nwk_ioctl)
    -------------------------------------------------------------------------
RCODE
  Relative segment, address: CODE 000004BB - 000004E3 (0x29 bytes), align: 0
  Segment part 5.             Intra module refs:   ?PUSH_XSTACK8_X_TWO
           ENTRY                   ADDRESS         REF BY
           =====                   =======         ======
           ?PUSH_XSTACK8_X         000004BB 

    -------------------------------------------------------------------------
  LIBRARY MODULE, NAME : ?memcmp

  SEGMENTS IN THE MODULE
  ======================
NEAR_CODE
  Relative segment, address: CODE 00002E27 - 00002E72 (0x4c bytes), align: 0
  Segment part 6.
           ENTRY                   ADDRESS         REF BY
           =====                   =======         ======
           memcmp                  00002E27        dispatchFrame (nwk_frame)
                                                   nwk_QfindOldest (nwk_QMgmt)
                                                   nwk_allocateLocalRxPort (nwk)
                                                   nwk_findPeer (nwk)
                                                   nwk_getAPAddress (nwk_globals)
                                                   nwk_isConnectionValid (nwk)
                                                   nwk_isLinkDuplicate (nwk)
                                                   nwk_isValidReply (nwk)
                                                   nwk_processMgmt (nwk_mgmt)
               XSTACK = 00000002 ( 00000008 )

    -------------------------------------------------------------------------
  LIBRARY MODULE, NAME : ?memcpy

  SEGMENTS IN THE MODULE
  ======================
NEAR_CODE
  Relative segment, address: CODE 00002E73 - 00002EB8 (0x46 bytes), align: 0
  Segment part 6.
           ENTRY                   ADDRESS         REF BY
           =====                   =======         ======
           memcpy                  00002E73        SMPL_Ioctl (nwk_api)
                                                   handleLinkRequest (nwk_link)
                                                   nwk_buildFrame (nwk_frame)
                                                   nwk_deviceAddress (nwk_ioctl)
                                                   nwk_globalsInit (nwk_globals)
                                                   nwk_join (nwk_join)
                                                   nwk_link (nwk_link)
                                                   nwk_nwkInit (nwk)
                                                   nwk_poll (nwk_mgmt)
                                                   nwk_processPing (nwk_ping)
                                                   nwk_radioControl (nwk_ioctl)
                                                   nwk_rawSend (nwk_ioctl)
                                                   nwk_retrieveFrame (nwk_frame)
                                                   nwk_sendAckReply (nwk_frame)
                                                   nwk_setAPAddress (nwk_globals)
                                                   nwk_setMyAddress (nwk_globals)
                                                   smpl_send_link_reply (nwk_link)
               XSTACK = 00000002 ( 00000009 )
               ISTACK = 00000000 ( 00000001 )

    -------------------------------------------------------------------------
  LIBRARY MODULE, NAME : ?memmove

  SEGMENTS IN THE MODULE
  ======================
NEAR_CODE
  Relative segment, address: CODE 00002EB9 - 00002F3E (0x86 bytes), align: 0
  Segment part 6.
           ENTRY                   ADDRESS         REF BY
           =====                   =======         ======
           memmove                 00002EB9        MRFI_RfIsr (mrfi)
                                                   nwk_getNumObjectFromMsg (nwk)
                                                   nwk_putNumObjectIntoMsg (nwk)
               XSTACK = 00000002 ( 00000009 )
               ISTACK = 00000000 ( 00000001 )
    -------------------------------------------------------------------------
NEAR_CODE
  Relative segment, address: CODE 00002F3F - 00002F51 (0x13 bytes), align: 0
  Segment part 7.             Intra module refs:   memmove

    -------------------------------------------------------------------------
  LIBRARY MODULE, NAME : ?memset

  SEGMENTS IN THE MODULE
  ======================
NEAR_CODE
  Relative segment, address: CODE 00002F52 - 00002F7B (0x2a bytes), align: 0
  Segment part 6.
           ENTRY                   ADDRESS         REF BY
           =====                   =======         ======
           memset                  00002F52        MRFI_Init (mrfi)
                                                   MRFI_RfIsr (mrfi)
                                                   Mrfi_RxModeOn (mrfi)
                                                   nwk_QInit (nwk_QMgmt)
                                                   nwk_allocateLocalRxPort (nwk)
                                                   nwk_getAPAddress (nwk_globals)
                                                   nwk_globalsInit (nwk_globals)
                                                   nwk_linkInit (nwk_link)
                                                   nwk_nwkInit (nwk)
               XSTACK = 00000002 ( 00000000 )
               ISTACK = 00000000 ( 00000002 )




                ****************************************
                *                                      *
                *      SEGMENTS IN ADDRESS ORDER       *
                *                                      *
                ****************************************


SEGMENT              SPACE    START ADDRESS   END ADDRESS     SIZE  TYPE  ALIGN
=======              =====    =============   ===========     ====  ====  =====
INTVEC               CODE          00000000 - 00000085          86   com    0
CSTART               CODE          00000086 - 000000D5          50   rel    0
BDATA_ID             CODE               000000D6                     dse    0
BIT_ID               CODE               000000D6                     dse    0
DATA_ID              CODE               000000D6                     dse    0
IDATA_ID             CODE               000000D6                     dse    0
IXDATA_ID            CODE               000000D6                     dse    0
PDATA_ID             CODE               000000D6                     dse    0
XDATA_ID             CODE          000000D6 - 0000017F          AA   rel    0
RCODE                CODE          00000180 - 000004E3         364   rel    0
CODE_C               CODE               000004E4                     dse    0
CODE_N               CODE               000004E4                     dse    0
DIFUNCT              CODE               000004E4                     dse    0
NEAR_CODE            CODE          000004E4 - 00002F7B        2A98   rel    0
REGISTERS            DATA          00000000 - 00000007           8   rel    0
VREG                 DATA          00000008 - 0000000F           8   rel    0
PSP                  DATA               00000010                     dse    0
XSP                  DATA          00000010 - 00000011           2   rel    0
BREG                 BIT        00000020.0  -  00000020.7        8   rel    0
SFR_AN               DATA          00000080 - 00000080           1   rel    0
                     DATA          00000086 - 00000086           1 
                     DATA          00000088 - 00000088           1 
                     DATA          0000008F - 00000091           3 
                     DATA          0000009A - 0000009B           2 
                     DATA          000000A0 - 000000A5           6 
                     DATA          000000A8 - 000000A9           2 
                     DATA          000000B4 - 000000B4           1 
                     DATA          000000B8 - 000000B9           2 
                     DATA          000000BC - 000000BC           1 
                     DATA          000000BE - 000000BE           1 
                     DATA          000000C0 - 000000C0           1 
                     DATA          000000C2 - 000000C2           1 
                     DATA          000000C4 - 000000C7           4 
                     DATA          000000C9 - 000000C9           1 
                     DATA          000000CB - 000000CB           1 
                     DATA          000000CD - 000000CD           1 
                     DATA          000000D1 - 000000D1           1 
                     DATA          000000D4 - 000000D6           3 
                     DATA          000000D8 - 000000D8           1 
                     DATA          000000E1 - 000000E1           1 
                     DATA          000000E9 - 000000E9           1 
                     DATA          000000F1 - 000000F1           1 
                     DATA          000000F3 - 000000F6           4 
                     DATA          000000F8 - 000000FF           8 
XSTACK               XDATA         0000F000 - 0000F3FE         3FF   rel    0
XDATA_Z              XDATA         0000F3FF - 0000F534         136   rel    0
XDATA_I              XDATA         0000F535 - 0000F5DE          AA   rel    0
ISTACK               IDATA         00000040 - 000000FF          C0   rel    0

                ****************************************
                *                                      *
                *        END OF CROSS REFERENCE        *
                *                                      *
                ****************************************

 12 156 bytes of CODE  memory
     18 bytes of DATA  memory (+ 50 absolute )
  1 503 bytes of XDATA memory
    192 bytes of IDATA memory
      8 bits  of BIT   memory

Errors: none
Warnings: none

